---
triple:          'arm64-apple-darwin'
binary-path:     '/Users/tannu/Repository/Algorithms/Dynamic_Programming/Multistage_graph_adjList/main'
relocations:
  - { offsetInCU: 0x6C45, offset: 0x6C45, size: 0x8, addend: 0x0, symName: __ZNSt3__124__put_character_sequenceB8ue170006IcNS_11char_traitsIcEEEERNS_13basic_ostreamIT_T0_EES7_PKS4_m, symObjAddr: 0xB5C, symBinAddr: 0x100005078, symSize: 0x1EC }
  - { offsetInCU: 0x6C4D, offset: 0x6C4D, size: 0x8, addend: 0x0, symName: __ZNSt3__111char_traitsIcE6lengthB8ue170006EPKc, symObjAddr: 0xD48, symBinAddr: 0x100005264, symSize: 0x34 }
  - { offsetInCU: 0x9E78, offset: 0x9E78, size: 0x8, addend: 0x0, symName: __ZNSt3__1neB8ue170006IPNS_4pairIifEEEEbRKNS_11__wrap_iterIT_EES8_, symObjAddr: 0x248, symBinAddr: 0x100004764, symSize: 0x34 }
  - { offsetInCU: 0x9E80, offset: 0x9E80, size: 0x8, addend: 0x0, symName: __ZNKSt3__111__wrap_iterIPNS_4pairIifEEEdeB8ue170006Ev, symObjAddr: 0x27C, symBinAddr: 0x100004798, symSize: 0x18 }
  - { offsetInCU: 0x9ED0, offset: 0x9ED0, size: 0x8, addend: 0x0, symName: __ZNSt3__1lsB8ue170006INS_11char_traitsIcEEEERNS_13basic_ostreamIcT_EES6_PKc, symObjAddr: 0x844, symBinAddr: 0x100004D60, symSize: 0x48 }
  - { offsetInCU: 0x9ED8, offset: 0x9ED8, size: 0x8, addend: 0x0, symName: __ZNSt3__16vectorINS_4pairIifEENS_9allocatorIS2_EEEC1B8ue170006Ev, symObjAddr: 0x88C, symBinAddr: 0x100004DA8, symSize: 0x2C }
  - { offsetInCU: 0x9F2B, offset: 0x9F2B, size: 0x8, addend: 0x0, symName: __ZNSt3__14endlB8ue170006IcNS_11char_traitsIcEEEERNS_13basic_ostreamIT_T0_EES7_, symObjAddr: 0x8E4, symBinAddr: 0x100004E00, symSize: 0x58 }
  - { offsetInCU: 0x9F33, offset: 0x9F33, size: 0x8, addend: 0x0, symName: __ZNSt3__16vectorINS_4pairIifEENS_9allocatorIS2_EEE9push_backB8ue170006EOS2_, symObjAddr: 0x93C, symBinAddr: 0x100004E58, symSize: 0x6C }
  - { offsetInCU: 0x9F80, offset: 0x9F80, size: 0x8, addend: 0x0, symName: __ZNSt3__1lsB8ue170006INS_11char_traitsIcEEEERNS_13basic_ostreamIcT_EES6_c, symObjAddr: 0x9E4, symBinAddr: 0x100004F00, symSize: 0x34 }
  - { offsetInCU: 0x9F88, offset: 0x9F88, size: 0x8, addend: 0x0, symName: __ZNSt3__16vectorINS_4pairIifEENS_9allocatorIS2_EEED1B8ue170006Ev, symObjAddr: 0xA18, symBinAddr: 0x100004F34, symSize: 0x2C }
  - { offsetInCU: 0x9FDB, offset: 0x9FDB, size: 0x8, addend: 0x0, symName: __ZNSt3__1eqB8ue170006IPNS_4pairIifEEEEbRKNS_11__wrap_iterIT_EES8_, symObjAddr: 0xA44, symBinAddr: 0x100004F60, symSize: 0x48 }
  - { offsetInCU: 0x9FE3, offset: 0x9FE3, size: 0x8, addend: 0x0, symName: __ZNKSt3__111__wrap_iterIPNS_4pairIifEEE4baseB8ue170006Ev, symObjAddr: 0xA8C, symBinAddr: 0x100004FA8, symSize: 0x18 }
  - { offsetInCU: 0xA033, offset: 0xA033, size: 0x8, addend: 0x0, symName: __ZNSt3__116__pad_and_outputB8ue170006IcNS_11char_traitsIcEEEENS_19ostreambuf_iteratorIT_T0_EES6_PKS4_S8_S8_RNS_8ios_baseES4_, symObjAddr: 0xD98, symBinAddr: 0x1000052B4, symSize: 0x240 }
  - { offsetInCU: 0xA03B, offset: 0xA03B, size: 0x8, addend: 0x0, symName: __ZNSt3__119ostreambuf_iteratorIcNS_11char_traitsIcEEEC1B8ue170006ERNS_13basic_ostreamIcS2_EE, symObjAddr: 0xFD8, symBinAddr: 0x1000054F4, symSize: 0x34 }
  - { offsetInCU: 0xA13B, offset: 0xA13B, size: 0x8, addend: 0x0, symName: __ZNSt3__112__to_addressB8ue170006IcEEPT_S2_, symObjAddr: 0x130C, symBinAddr: 0x100005828, symSize: 0x14 }
  - { offsetInCU: 0xA143, offset: 0xA143, size: 0x8, addend: 0x0, symName: __ZNSt3__112basic_stringIcNS_11char_traitsIcEENS_9allocatorIcEEE13__get_pointerB8ue170006Ev, symObjAddr: 0x1320, symBinAddr: 0x10000583C, symSize: 0x54 }
  - { offsetInCU: 0xA1C7, offset: 0xA1C7, size: 0x8, addend: 0x0, symName: __ZNSt3__19use_facetB8ue170006INS_5ctypeIcEEEERKT_RKNS_6localeE, symObjAddr: 0x15C4, symBinAddr: 0x100005AE0, symSize: 0x2C }
  - { offsetInCU: 0xA1CF, offset: 0xA1CF, size: 0x8, addend: 0x0, symName: __ZNKSt3__15ctypeIcE5widenB8ue170006Ec, symObjAddr: 0x15F0, symBinAddr: 0x100005B0C, symSize: 0x38 }
  - { offsetInCU: 0xA906, offset: 0xA906, size: 0x8, addend: 0x0, symName: __ZNSt3__118__constexpr_strlenB8ue170006EPKc, symObjAddr: 0x165C, symBinAddr: 0x100005B78, symSize: 0x24 }
  - { offsetInCU: 0xA90E, offset: 0xA90E, size: 0x8, addend: 0x0, symName: __ZNSt3__16vectorINS_4pairIifEENS_9allocatorIS2_EEEC2B8ue170006Ev, symObjAddr: 0x1680, symBinAddr: 0x100005B9C, symSize: 0x4C }
  - { offsetInCU: 0xA93F, offset: 0xA93F, size: 0x8, addend: 0x0, symName: __ZNSt3__112__to_addressB8ue170006INS_4pairIifEEEEPT_S4_, symObjAddr: 0x1B2C, symBinAddr: 0x100006048, symSize: 0x14 }
  - { offsetInCU: 0xA947, offset: 0xA947, size: 0x8, addend: 0x0, symName: __ZNSt3__19allocatorINS_4pairIifEEE7destroyB8ue170006EPS2_, symObjAddr: 0x1B40, symBinAddr: 0x10000605C, symSize: 0x14 }
  - { offsetInCU: 0xA986, offset: 0xA986, size: 0x8, addend: 0x0, symName: __ZNSt3__119__libcpp_deallocateB8ue170006EPvmm, symObjAddr: 0x1C04, symBinAddr: 0x100006120, symSize: 0x60 }
  - { offsetInCU: 0xA98E, offset: 0xA98E, size: 0x8, addend: 0x0, symName: __ZNSt3__124__is_overaligned_for_newB8ue170006Em, symObjAddr: 0x1C64, symBinAddr: 0x100006180, symSize: 0x20 }
  - { offsetInCU: 0xAA04, offset: 0xAA04, size: 0x8, addend: 0x0, symName: __ZNSt3__124__is_overaligned_for_newB8ue170006Em, symObjAddr: 0x1C64, symBinAddr: 0x100006180, symSize: 0x20 }
  - { offsetInCU: 0xAA0C, offset: 0xAA0C, size: 0x8, addend: 0x0, symName: __ZNSt3__127__do_deallocate_handle_sizeB8ue170006IJSt11align_val_tEEEvPvmDpT_, symObjAddr: 0x1C84, symBinAddr: 0x1000061A0, symSize: 0x30 }
  - { offsetInCU: 0xAA40, offset: 0xAA40, size: 0x8, addend: 0x0, symName: __ZNSt3__127__do_deallocate_handle_sizeB8ue170006IJSt11align_val_tEEEvPvmDpT_, symObjAddr: 0x1C84, symBinAddr: 0x1000061A0, symSize: 0x30 }
  - { offsetInCU: 0xAA48, offset: 0xAA48, size: 0x8, addend: 0x0, symName: __ZNSt3__127__do_deallocate_handle_sizeB8ue170006IJEEEvPvmDpT_, symObjAddr: 0x1CB4, symBinAddr: 0x1000061D0, symSize: 0x28 }
  - { offsetInCU: 0xAAA8, offset: 0xAAA8, size: 0x8, addend: 0x0, symName: __ZNSt3__127__do_deallocate_handle_sizeB8ue170006IJEEEvPvmDpT_, symObjAddr: 0x1CB4, symBinAddr: 0x1000061D0, symSize: 0x28 }
  - { offsetInCU: 0xAAB0, offset: 0xAAB0, size: 0x8, addend: 0x0, symName: __ZNSt3__124__libcpp_operator_deleteB8ue170006IJPvSt11align_val_tEEEvDpT_, symObjAddr: 0x1CDC, symBinAddr: 0x1000061F8, symSize: 0x2C }
  - { offsetInCU: 0xAAF3, offset: 0xAAF3, size: 0x8, addend: 0x0, symName: __ZNSt3__124__libcpp_operator_deleteB8ue170006IJPvSt11align_val_tEEEvDpT_, symObjAddr: 0x1CDC, symBinAddr: 0x1000061F8, symSize: 0x2C }
  - { offsetInCU: 0xAAFB, offset: 0xAAFB, size: 0x8, addend: 0x0, symName: __ZNSt3__124__libcpp_operator_deleteB8ue170006IJPvEEEvDpT_, symObjAddr: 0x1D08, symBinAddr: 0x100006224, symSize: 0x24 }
  - { offsetInCU: 0xAB51, offset: 0xAB51, size: 0x8, addend: 0x0, symName: __ZNSt3__124__libcpp_operator_deleteB8ue170006IJPvEEEvDpT_, symObjAddr: 0x1D08, symBinAddr: 0x100006224, symSize: 0x24 }
  - { offsetInCU: 0xAB59, offset: 0xAB59, size: 0x8, addend: 0x0, symName: __ZNSt3__117__compressed_pairIPNS_4pairIifEENS_9allocatorIS2_EEE6secondB8ue170006Ev, symObjAddr: 0x1D2C, symBinAddr: 0x100006248, symSize: 0x24 }
  - { offsetInCU: 0xAB93, offset: 0xAB93, size: 0x8, addend: 0x0, symName: __ZNSt3__13maxB8ue170006ImEERKT_S3_S3_, symObjAddr: 0x2364, symBinAddr: 0x100006880, symSize: 0x2C }
  - { offsetInCU: 0xAB9B, offset: 0xAB9B, size: 0x8, addend: 0x0, symName: __ZNSt3__13minB8ue170006ImEERKT_S3_S3_, symObjAddr: 0x2390, symBinAddr: 0x1000068AC, symSize: 0x2C }
  - { offsetInCU: 0xABEB, offset: 0xABEB, size: 0x8, addend: 0x0, symName: __ZNSt3__13minB8ue170006ImEERKT_S3_S3_, symObjAddr: 0x2390, symBinAddr: 0x1000068AC, symSize: 0x2C }
  - { offsetInCU: 0xABF3, offset: 0xABF3, size: 0x8, addend: 0x0, symName: __ZNSt3__116allocator_traitsINS_9allocatorINS_4pairIifEEEEE8max_sizeB8ue170006IS4_vEEmRKS4_, symObjAddr: 0x23BC, symBinAddr: 0x1000068D8, symSize: 0x24 }
  - { offsetInCU: 0xAEFB, offset: 0xAEFB, size: 0x8, addend: 0x0, symName: __ZNSt3__13minB8ue170006ImNS_6__lessIvvEEEERKT_S5_S5_T0_, symObjAddr: 0x241C, symBinAddr: 0x100006938, symSize: 0x54 }
  - { offsetInCU: 0xAF03, offset: 0xAF03, size: 0x8, addend: 0x0, symName: __ZNKSt3__16__lessIvvEclB8ue170006ImmEEbRKT_RKT0_, symObjAddr: 0x2470, symBinAddr: 0x10000698C, symSize: 0x34 }
  - { offsetInCU: 0xAFD4, offset: 0xAFD4, size: 0x8, addend: 0x0, symName: __ZNSt3__120__throw_length_errorB8ue170006EPKc, symObjAddr: 0x24F8, symBinAddr: 0x100006A14, symSize: 0x64 }
  - { offsetInCU: 0xAFDC, offset: 0xAFDC, size: 0x8, addend: 0x0, symName: __ZNSt12length_errorC1B8ue170006EPKc, symObjAddr: 0x255C, symBinAddr: 0x100006A78, symSize: 0x34 }
  - { offsetInCU: 0xB008, offset: 0xB008, size: 0x8, addend: 0x0, symName: __ZNSt3__13maxB8ue170006ImNS_6__lessIvvEEEERKT_S5_S5_T0_, symObjAddr: 0x25DC, symBinAddr: 0x100006AF8, symSize: 0x54 }
  - { offsetInCU: 0xB010, offset: 0xB010, size: 0x8, addend: 0x0, symName: __ZNSt3__114__split_bufferINS_4pairIifEERNS_9allocatorIS2_EEEC2EmmS5_, symObjAddr: 0x2630, symBinAddr: 0x100006B4C, symSize: 0xD4 }
  - { offsetInCU: 0xB07F, offset: 0xB07F, size: 0x8, addend: 0x0, symName: __ZNSt3__119__allocate_at_leastB8ue170006INS_9allocatorINS_4pairIifEEEEEENS_19__allocation_resultINS_16allocator_traitsIT_E7pointerEEERS7_m, symObjAddr: 0x2740, symBinAddr: 0x100006C5C, symSize: 0x40 }
  - { offsetInCU: 0xB087, offset: 0xB087, size: 0x8, addend: 0x0, symName: __ZNSt3__114__split_bufferINS_4pairIifEERNS_9allocatorIS2_EEE7__allocB8ue170006Ev, symObjAddr: 0x2780, symBinAddr: 0x100006C9C, symSize: 0x28 }
  - { offsetInCU: 0xB0D7, offset: 0xB0D7, size: 0x8, addend: 0x0, symName: __ZNSt3__117__libcpp_allocateB8ue170006Emm, symObjAddr: 0x28C4, symBinAddr: 0x100006DE0, symSize: 0x60 }
  - { offsetInCU: 0xB0DF, offset: 0xB0DF, size: 0x8, addend: 0x0, symName: __ZNSt3__121__libcpp_operator_newB8ue170006IJmSt11align_val_tEEEPvDpT_, symObjAddr: 0x2924, symBinAddr: 0x100006E40, symSize: 0x2C }
  - { offsetInCU: 0xB14A, offset: 0xB14A, size: 0x8, addend: 0x0, symName: __ZNSt3__121__libcpp_operator_newB8ue170006IJmSt11align_val_tEEEPvDpT_, symObjAddr: 0x2924, symBinAddr: 0x100006E40, symSize: 0x2C }
  - { offsetInCU: 0xB152, offset: 0xB152, size: 0x8, addend: 0x0, symName: __ZNSt3__121__libcpp_operator_newB8ue170006IJmEEEPvDpT_, symObjAddr: 0x2950, symBinAddr: 0x100006E6C, symSize: 0x24 }
  - { offsetInCU: 0xB1B0, offset: 0xB1B0, size: 0x8, addend: 0x0, symName: __ZNSt3__121__libcpp_operator_newB8ue170006IJmEEEPvDpT_, symObjAddr: 0x2950, symBinAddr: 0x100006E6C, symSize: 0x24 }
  - { offsetInCU: 0xB1B8, offset: 0xB1B8, size: 0x8, addend: 0x0, symName: __ZNSt3__117__compressed_pairIPNS_4pairIifEERNS_9allocatorIS2_EEE6secondB8ue170006Ev, symObjAddr: 0x2974, symBinAddr: 0x100006E90, symSize: 0x28 }
  - { offsetInCU: 0xB1FA, offset: 0xB1FA, size: 0x8, addend: 0x0, symName: __ZNSt3__142__uninitialized_allocator_move_if_noexceptB8ue170006INS_9allocatorINS_4pairIifEEEENS_16reverse_iteratorIPS3_EES7_S7_EET2_RT_T0_T1_S8_, symObjAddr: 0x29D8, symBinAddr: 0x100006EF4, symSize: 0x12C }
  - { offsetInCU: 0xB202, offset: 0xB202, size: 0x8, addend: 0x0, symName: __ZNSt3__116reverse_iteratorIPNS_4pairIifEEEC1B8ue170006ES3_, symObjAddr: 0x2B04, symBinAddr: 0x100007020, symSize: 0x34 }
  - { offsetInCU: 0xB2CB, offset: 0xB2CB, size: 0x8, addend: 0x0, symName: __ZNSt3__14swapB8ue170006IPNS_4pairIifEEEENS_9enable_ifIXaasr21is_move_constructibleIT_EE5valuesr18is_move_assignableIS5_EE5valueEvE4typeERS5_S8_, symObjAddr: 0x2B50, symBinAddr: 0x10000706C, symSize: 0x3C }
  - { offsetInCU: 0xB2D3, offset: 0xB2D3, size: 0x8, addend: 0x0, symName: __ZNKSt3__16vectorINS_4pairIifEENS_9allocatorIS2_EEE14__annotate_newB8ue170006Em, symObjAddr: 0x2B8C, symBinAddr: 0x1000070A8, symSize: 0xAC }
  - { offsetInCU: 0xB336, offset: 0xB336, size: 0x8, addend: 0x0, symName: __ZNSt3__122__make_exception_guardB8ue170006INS_29_AllocatorDestroyRangeReverseINS_9allocatorINS_4pairIifEEEENS_16reverse_iteratorIPS4_EEEEEENS_28__exception_guard_exceptionsIT_EESB_, symObjAddr: 0x2C38, symBinAddr: 0x100007154, symSize: 0x4C }
  - { offsetInCU: 0xB33E, offset: 0xB33E, size: 0x8, addend: 0x0, symName: __ZNSt3__129_AllocatorDestroyRangeReverseINS_9allocatorINS_4pairIifEEEENS_16reverse_iteratorIPS3_EEEC1B8ue170006ERS4_RS7_SA_, symObjAddr: 0x2C84, symBinAddr: 0x1000071A0, symSize: 0x44 }
  - { offsetInCU: 0xB37D, offset: 0xB37D, size: 0x8, addend: 0x0, symName: __ZNSt3__1neB8ue170006IPNS_4pairIifEES3_EEbRKNS_16reverse_iteratorIT_EERKNS4_IT0_EE, symObjAddr: 0x2CC8, symBinAddr: 0x1000071E4, symSize: 0x48 }
  - { offsetInCU: 0xB385, offset: 0xB385, size: 0x8, addend: 0x0, symName: __ZNSt3__112__to_addressB8ue170006INS_16reverse_iteratorIPNS_4pairIifEEEEvEEu7__decayIDTclsr19__to_address_helperIT_EE6__callclsr3stdE7declvalIRKS6_EEEEES8_, symObjAddr: 0x2D10, symBinAddr: 0x10000722C, symSize: 0x24 }
  - { offsetInCU: 0xB3E2, offset: 0xB3E2, size: 0x8, addend: 0x0, symName: __ZNSt3__112__to_addressB8ue170006INS_16reverse_iteratorIPNS_4pairIifEEEEvEEu7__decayIDTclsr19__to_address_helperIT_EE6__callclsr3stdE7declvalIRKS6_EEEEES8_, symObjAddr: 0x2D10, symBinAddr: 0x10000722C, symSize: 0x24 }
  - { offsetInCU: 0xB3EA, offset: 0xB3EA, size: 0x8, addend: 0x0, symName: __ZNKSt3__116reverse_iteratorIPNS_4pairIifEEEdeB8ue170006Ev, symObjAddr: 0x2D34, symBinAddr: 0x100007250, symSize: 0x28 }
  - { offsetInCU: 0xB461, offset: 0xB461, size: 0x8, addend: 0x0, symName: __ZNSt3__119__allocator_destroyB8ue170006INS_9allocatorINS_4pairIifEEEENS_16reverse_iteratorINS5_IPS3_EEEES8_EEvRT_T0_T1_, symObjAddr: 0x2FC0, symBinAddr: 0x1000074DC, symSize: 0x70 }
  - { offsetInCU: 0xB469, offset: 0xB469, size: 0x8, addend: 0x0, symName: __ZNSt3__116reverse_iteratorINS0_IPNS_4pairIifEEEEEC1B8ue170006ES4_, symObjAddr: 0x3030, symBinAddr: 0x10000754C, symSize: 0x3C }
  - { offsetInCU: 0xB4E3, offset: 0xB4E3, size: 0x8, addend: 0x0, symName: __ZNSt3__1neB8ue170006INS_16reverse_iteratorIPNS_4pairIifEEEES5_EEbRKNS1_IT_EERKNS1_IT0_EE, symObjAddr: 0x306C, symBinAddr: 0x100007588, symSize: 0x60 }
  - { offsetInCU: 0xB4EB, offset: 0xB4EB, size: 0x8, addend: 0x0, symName: __ZNSt3__112__to_addressB8ue170006INS_16reverse_iteratorINS1_IPNS_4pairIifEEEEEEvEEu7__decayIDTclsr19__to_address_helperIT_EE6__callclsr3stdE7declvalIRKS7_EEEEES9_, symObjAddr: 0x30CC, symBinAddr: 0x1000075E8, symSize: 0x24 }
  - { offsetInCU: 0xB548, offset: 0xB548, size: 0x8, addend: 0x0, symName: __ZNSt3__112__to_addressB8ue170006INS_16reverse_iteratorINS1_IPNS_4pairIifEEEEEEvEEu7__decayIDTclsr19__to_address_helperIT_EE6__callclsr3stdE7declvalIRKS7_EEEEES9_, symObjAddr: 0x30CC, symBinAddr: 0x1000075E8, symSize: 0x24 }
  - { offsetInCU: 0xB550, offset: 0xB550, size: 0x8, addend: 0x0, symName: __ZNSt3__116reverse_iteratorINS0_IPNS_4pairIifEEEEEppB8ue170006Ev, symObjAddr: 0x30F0, symBinAddr: 0x10000760C, symSize: 0x30 }
  - { offsetInCU: 0xB95F, offset: 0xB95F, size: 0x8, addend: 0x0, symName: __ZSt28__throw_bad_array_new_lengthB8ue170006v, symObjAddr: 0x2890, symBinAddr: 0x100006DAC, symSize: 0x34 }
  - { offsetInCU: 0xB967, offset: 0xB967, size: 0x8, addend: 0x0, symName: __ZNSt3__117__libcpp_allocateB8ue170006Emm, symObjAddr: 0x28C4, symBinAddr: 0x100006DE0, symSize: 0x60 }
  - { offsetInCU: 0xC33B, offset: 0xC33B, size: 0x8, addend: 0x0, symName: __ZNSt3__16vectorINS_4pairIifEENS_9allocatorIS2_EEE26__swap_out_circular_bufferERNS_14__split_bufferIS2_RS4_EE, symObjAddr: 0x21AC, symBinAddr: 0x1000066C8, symSize: 0x110 }
  - { offsetInCU: 0xC343, offset: 0xC343, size: 0x8, addend: 0x0, symName: __ZNSt3__114__split_bufferINS_4pairIifEERNS_9allocatorIS2_EEED1Ev, symObjAddr: 0x22BC, symBinAddr: 0x1000067D8, symSize: 0x2C }
  - { offsetInCU: 0xFA77, offset: 0xFA77, size: 0x8, addend: 0x0, symName: __Z16BMultistageGraphPNSt3__16vectorINS_4pairIifEENS_9allocatorIS2_EEEEiiPiiS7_, symObjAddr: 0x0, symBinAddr: 0x10000451C, symSize: 0x1E8 }
  - { offsetInCU: 0xFA7F, offset: 0xFA7F, size: 0x8, addend: 0x0, symName: __ZNSt3__16vectorINS_4pairIifEENS_9allocatorIS2_EEE5beginB8ue170006Ev, symObjAddr: 0x1E8, symBinAddr: 0x100004704, symSize: 0x30 }
  - { offsetInCU: 0xFB92, offset: 0xFB92, size: 0x8, addend: 0x0, symName: __ZNSt3__16vectorINS_4pairIifEENS_9allocatorIS2_EEE5beginB8ue170006Ev, symObjAddr: 0x1E8, symBinAddr: 0x100004704, symSize: 0x30 }
  - { offsetInCU: 0xFB9A, offset: 0xFB9A, size: 0x8, addend: 0x0, symName: __ZNSt3__16vectorINS_4pairIifEENS_9allocatorIS2_EEE3endB8ue170006Ev, symObjAddr: 0x218, symBinAddr: 0x100004734, symSize: 0x30 }
  - { offsetInCU: 0xFBC5, offset: 0xFBC5, size: 0x8, addend: 0x0, symName: __ZNSt3__16vectorINS_4pairIifEENS_9allocatorIS2_EEE3endB8ue170006Ev, symObjAddr: 0x218, symBinAddr: 0x100004734, symSize: 0x30 }
  - { offsetInCU: 0xFBCD, offset: 0xFBCD, size: 0x8, addend: 0x0, symName: __ZNSt3__1neB8ue170006IPNS_4pairIifEEEEbRKNS_11__wrap_iterIT_EES8_, symObjAddr: 0x248, symBinAddr: 0x100004764, symSize: 0x34 }
  - { offsetInCU: 0xFBF9, offset: 0xFBF9, size: 0x8, addend: 0x0, symName: __ZNKSt3__111__wrap_iterIPNS_4pairIifEEEdeB8ue170006Ev, symObjAddr: 0x27C, symBinAddr: 0x100004798, symSize: 0x18 }
  - { offsetInCU: 0xFC01, offset: 0xFC01, size: 0x8, addend: 0x0, symName: __ZNSt3__111__wrap_iterIPNS_4pairIifEEEppB8ue170006Ev, symObjAddr: 0x294, symBinAddr: 0x1000047B0, symSize: 0x20 }
  - { offsetInCU: 0xFC2C, offset: 0xFC2C, size: 0x8, addend: 0x0, symName: __ZNSt3__111__wrap_iterIPNS_4pairIifEEEppB8ue170006Ev, symObjAddr: 0x294, symBinAddr: 0x1000047B0, symSize: 0x20 }
  - { offsetInCU: 0xFC34, offset: 0xFC34, size: 0x8, addend: 0x0, symName: _main, symObjAddr: 0x2B4, symBinAddr: 0x1000047D0, symSize: 0x590 }
  - { offsetInCU: 0xFC5F, offset: 0xFC5F, size: 0x8, addend: 0x0, symName: _main, symObjAddr: 0x2B4, symBinAddr: 0x1000047D0, symSize: 0x590 }
  - { offsetInCU: 0xFC67, offset: 0xFC67, size: 0x8, addend: 0x0, symName: __ZNSt3__1lsB8ue170006INS_11char_traitsIcEEEERNS_13basic_ostreamIcT_EES6_PKc, symObjAddr: 0x844, symBinAddr: 0x100004D60, symSize: 0x48 }
  - { offsetInCU: 0xFD9C, offset: 0xFD9C, size: 0x8, addend: 0x0, symName: __ZNSt3__16vectorINS_4pairIifEENS_9allocatorIS2_EEEC1B8ue170006Ev, symObjAddr: 0x88C, symBinAddr: 0x100004DA8, symSize: 0x2C }
  - { offsetInCU: 0xFDA4, offset: 0xFDA4, size: 0x8, addend: 0x0, symName: __ZNSt3__113basic_ostreamIcNS_11char_traitsIcEEElsB8ue170006EPFRS3_S4_E, symObjAddr: 0x8B8, symBinAddr: 0x100004DD4, symSize: 0x2C }
  - { offsetInCU: 0xFDD2, offset: 0xFDD2, size: 0x8, addend: 0x0, symName: __ZNSt3__113basic_ostreamIcNS_11char_traitsIcEEElsB8ue170006EPFRS3_S4_E, symObjAddr: 0x8B8, symBinAddr: 0x100004DD4, symSize: 0x2C }
  - { offsetInCU: 0xFDDA, offset: 0xFDDA, size: 0x8, addend: 0x0, symName: __ZNSt3__14endlB8ue170006IcNS_11char_traitsIcEEEERNS_13basic_ostreamIT_T0_EES7_, symObjAddr: 0x8E4, symBinAddr: 0x100004E00, symSize: 0x58 }
  - { offsetInCU: 0xFE15, offset: 0xFE15, size: 0x8, addend: 0x0, symName: __ZNSt3__16vectorINS_4pairIifEENS_9allocatorIS2_EEE9push_backB8ue170006EOS2_, symObjAddr: 0x93C, symBinAddr: 0x100004E58, symSize: 0x6C }
  - { offsetInCU: 0xFE1D, offset: 0xFE1D, size: 0x8, addend: 0x0, symName: __ZNSt3__14pairIifEC1B8ue170006IRiRfLPv0EEEOT_OT0_, symObjAddr: 0x9A8, symBinAddr: 0x100004EC4, symSize: 0x3C }
  - { offsetInCU: 0xFE6E, offset: 0xFE6E, size: 0x8, addend: 0x0, symName: __ZNSt3__14pairIifEC1B8ue170006IRiRfLPv0EEEOT_OT0_, symObjAddr: 0x9A8, symBinAddr: 0x100004EC4, symSize: 0x3C }
  - { offsetInCU: 0xFE76, offset: 0xFE76, size: 0x8, addend: 0x0, symName: __ZNSt3__1lsB8ue170006INS_11char_traitsIcEEEERNS_13basic_ostreamIcT_EES6_c, symObjAddr: 0x9E4, symBinAddr: 0x100004F00, symSize: 0x34 }
  - { offsetInCU: 0xFEEC, offset: 0xFEEC, size: 0x8, addend: 0x0, symName: __ZNSt3__16vectorINS_4pairIifEENS_9allocatorIS2_EEED1B8ue170006Ev, symObjAddr: 0xA18, symBinAddr: 0x100004F34, symSize: 0x2C }
  - { offsetInCU: 0xFEF4, offset: 0xFEF4, size: 0x8, addend: 0x0, symName: __ZNSt3__1eqB8ue170006IPNS_4pairIifEEEEbRKNS_11__wrap_iterIT_EES8_, symObjAddr: 0xA44, symBinAddr: 0x100004F60, symSize: 0x48 }
  - { offsetInCU: 0xFF22, offset: 0xFF22, size: 0x8, addend: 0x0, symName: __ZNKSt3__111__wrap_iterIPNS_4pairIifEEE4baseB8ue170006Ev, symObjAddr: 0xA8C, symBinAddr: 0x100004FA8, symSize: 0x18 }
  - { offsetInCU: 0xFF2A, offset: 0xFF2A, size: 0x8, addend: 0x0, symName: __ZNSt3__14pairIifEC2B8ue170006IRiRfLPv0EEEOT_OT0_, symObjAddr: 0xAA4, symBinAddr: 0x100004FC0, symSize: 0x34 }
  - { offsetInCU: 0xFF55, offset: 0xFF55, size: 0x8, addend: 0x0, symName: __ZNSt3__14pairIifEC2B8ue170006IRiRfLPv0EEEOT_OT0_, symObjAddr: 0xAA4, symBinAddr: 0x100004FC0, symSize: 0x34 }
  - { offsetInCU: 0xFF5D, offset: 0xFF5D, size: 0x8, addend: 0x0, symName: __ZNSt3__16vectorINS_4pairIifEENS_9allocatorIS2_EEE11__make_iterB8ue170006EPS2_, symObjAddr: 0xAD8, symBinAddr: 0x100004FF4, symSize: 0x30 }
  - { offsetInCU: 0xFFD4, offset: 0xFFD4, size: 0x8, addend: 0x0, symName: __ZNSt3__16vectorINS_4pairIifEENS_9allocatorIS2_EEE11__make_iterB8ue170006EPS2_, symObjAddr: 0xAD8, symBinAddr: 0x100004FF4, symSize: 0x30 }
  - { offsetInCU: 0xFFDC, offset: 0xFFDC, size: 0x8, addend: 0x0, symName: __ZNSt3__111__wrap_iterIPNS_4pairIifEEEC1B8ue170006ES3_, symObjAddr: 0xB08, symBinAddr: 0x100005024, symSize: 0x34 }
  - { offsetInCU: 0x10019, offset: 0x10019, size: 0x8, addend: 0x0, symName: __ZNSt3__111__wrap_iterIPNS_4pairIifEEEC1B8ue170006ES3_, symObjAddr: 0xB08, symBinAddr: 0x100005024, symSize: 0x34 }
  - { offsetInCU: 0x10021, offset: 0x10021, size: 0x8, addend: 0x0, symName: __ZNSt3__111__wrap_iterIPNS_4pairIifEEEC2B8ue170006ES3_, symObjAddr: 0xB3C, symBinAddr: 0x100005058, symSize: 0x20 }
  - { offsetInCU: 0x10061, offset: 0x10061, size: 0x8, addend: 0x0, symName: __ZNSt3__111__wrap_iterIPNS_4pairIifEEEC2B8ue170006ES3_, symObjAddr: 0xB3C, symBinAddr: 0x100005058, symSize: 0x20 }
  - { offsetInCU: 0x10069, offset: 0x10069, size: 0x8, addend: 0x0, symName: __ZNSt3__124__put_character_sequenceB8ue170006IcNS_11char_traitsIcEEEERNS_13basic_ostreamIT_T0_EES7_PKS4_m, symObjAddr: 0xB5C, symBinAddr: 0x100005078, symSize: 0x1EC }
  - { offsetInCU: 0x100AA, offset: 0x100AA, size: 0x8, addend: 0x0, symName: __ZNSt3__111char_traitsIcE6lengthB8ue170006EPKc, symObjAddr: 0xD48, symBinAddr: 0x100005264, symSize: 0x34 }
  - { offsetInCU: 0x100B2, offset: 0x100B2, size: 0x8, addend: 0x0, symName: __ZNKSt3__113basic_ostreamIcNS_11char_traitsIcEEE6sentrycvbB8ue170006Ev, symObjAddr: 0xD7C, symBinAddr: 0x100005298, symSize: 0x1C }
  - { offsetInCU: 0x1010F, offset: 0x1010F, size: 0x8, addend: 0x0, symName: __ZNKSt3__113basic_ostreamIcNS_11char_traitsIcEEE6sentrycvbB8ue170006Ev, symObjAddr: 0xD7C, symBinAddr: 0x100005298, symSize: 0x1C }
  - { offsetInCU: 0x10117, offset: 0x10117, size: 0x8, addend: 0x0, symName: __ZNSt3__116__pad_and_outputB8ue170006IcNS_11char_traitsIcEEEENS_19ostreambuf_iteratorIT_T0_EES6_PKS4_S8_S8_RNS_8ios_baseES4_, symObjAddr: 0xD98, symBinAddr: 0x1000052B4, symSize: 0x240 }
  - { offsetInCU: 0x10142, offset: 0x10142, size: 0x8, addend: 0x0, symName: __ZNSt3__119ostreambuf_iteratorIcNS_11char_traitsIcEEEC1B8ue170006ERNS_13basic_ostreamIcS2_EE, symObjAddr: 0xFD8, symBinAddr: 0x1000054F4, symSize: 0x34 }
  - { offsetInCU: 0x1014A, offset: 0x1014A, size: 0x8, addend: 0x0, symName: __ZNKSt3__18ios_base5flagsB8ue170006Ev, symObjAddr: 0x100C, symBinAddr: 0x100005528, symSize: 0x18 }
  - { offsetInCU: 0x1018A, offset: 0x1018A, size: 0x8, addend: 0x0, symName: __ZNKSt3__18ios_base5flagsB8ue170006Ev, symObjAddr: 0x100C, symBinAddr: 0x100005528, symSize: 0x18 }
  - { offsetInCU: 0x10192, offset: 0x10192, size: 0x8, addend: 0x0, symName: __ZNKSt3__19basic_iosIcNS_11char_traitsIcEEE4fillB8ue170006Ev, symObjAddr: 0x1024, symBinAddr: 0x100005540, symSize: 0x64 }
  - { offsetInCU: 0x101BE, offset: 0x101BE, size: 0x8, addend: 0x0, symName: __ZNKSt3__19basic_iosIcNS_11char_traitsIcEEE4fillB8ue170006Ev, symObjAddr: 0x1024, symBinAddr: 0x100005540, symSize: 0x64 }
  - { offsetInCU: 0x101C6, offset: 0x101C6, size: 0x8, addend: 0x0, symName: __ZNKSt3__119ostreambuf_iteratorIcNS_11char_traitsIcEEE6failedB8ue170006Ev, symObjAddr: 0x1088, symBinAddr: 0x1000055A4, symSize: 0x24 }
  - { offsetInCU: 0x101F2, offset: 0x101F2, size: 0x8, addend: 0x0, symName: __ZNKSt3__119ostreambuf_iteratorIcNS_11char_traitsIcEEE6failedB8ue170006Ev, symObjAddr: 0x1088, symBinAddr: 0x1000055A4, symSize: 0x24 }
  - { offsetInCU: 0x101FA, offset: 0x101FA, size: 0x8, addend: 0x0, symName: __ZNSt3__19basic_iosIcNS_11char_traitsIcEEE8setstateB8ue170006Ej, symObjAddr: 0x10AC, symBinAddr: 0x1000055C8, symSize: 0x2C }
  - { offsetInCU: 0x10225, offset: 0x10225, size: 0x8, addend: 0x0, symName: __ZNSt3__19basic_iosIcNS_11char_traitsIcEEE8setstateB8ue170006Ej, symObjAddr: 0x10AC, symBinAddr: 0x1000055C8, symSize: 0x2C }
  - { offsetInCU: 0x1022D, offset: 0x1022D, size: 0x8, addend: 0x0, symName: ___clang_call_terminate, symObjAddr: 0x10D8, symBinAddr: 0x1000055F4, symSize: 0xC }
  - { offsetInCU: 0x1026A, offset: 0x1026A, size: 0x8, addend: 0x0, symName: __ZNKSt3__18ios_base5widthB8ue170006Ev, symObjAddr: 0x10E4, symBinAddr: 0x100005600, symSize: 0x18 }
  - { offsetInCU: 0x10272, offset: 0x10272, size: 0x8, addend: 0x0, symName: __ZNSt3__115basic_streambufIcNS_11char_traitsIcEEE5sputnB8ue170006EPKcl, symObjAddr: 0x10FC, symBinAddr: 0x100005618, symSize: 0x3C }
  - { offsetInCU: 0x1029F, offset: 0x1029F, size: 0x8, addend: 0x0, symName: __ZNSt3__115basic_streambufIcNS_11char_traitsIcEEE5sputnB8ue170006EPKcl, symObjAddr: 0x10FC, symBinAddr: 0x100005618, symSize: 0x3C }
  - { offsetInCU: 0x102A7, offset: 0x102A7, size: 0x8, addend: 0x0, symName: __ZNSt3__112basic_stringIcNS_11char_traitsIcEENS_9allocatorIcEEEC1B8ue170006Emc, symObjAddr: 0x1138, symBinAddr: 0x100005654, symSize: 0x3C }
  - { offsetInCU: 0x102F5, offset: 0x102F5, size: 0x8, addend: 0x0, symName: __ZNSt3__112basic_stringIcNS_11char_traitsIcEENS_9allocatorIcEEEC1B8ue170006Emc, symObjAddr: 0x1138, symBinAddr: 0x100005654, symSize: 0x3C }
  - { offsetInCU: 0x102FD, offset: 0x102FD, size: 0x8, addend: 0x0, symName: __ZNSt3__112basic_stringIcNS_11char_traitsIcEENS_9allocatorIcEEE4dataB8ue170006Ev, symObjAddr: 0x1174, symBinAddr: 0x100005690, symSize: 0x28 }
  - { offsetInCU: 0x10351, offset: 0x10351, size: 0x8, addend: 0x0, symName: __ZNSt3__112basic_stringIcNS_11char_traitsIcEENS_9allocatorIcEEE4dataB8ue170006Ev, symObjAddr: 0x1174, symBinAddr: 0x100005690, symSize: 0x28 }
  - { offsetInCU: 0x10359, offset: 0x10359, size: 0x8, addend: 0x0, symName: __ZNSt3__18ios_base5widthB8ue170006El, symObjAddr: 0x119C, symBinAddr: 0x1000056B8, symSize: 0x2C }
  - { offsetInCU: 0x10383, offset: 0x10383, size: 0x8, addend: 0x0, symName: __ZNSt3__18ios_base5widthB8ue170006El, symObjAddr: 0x119C, symBinAddr: 0x1000056B8, symSize: 0x2C }
  - { offsetInCU: 0x1038B, offset: 0x1038B, size: 0x8, addend: 0x0, symName: __ZNSt3__112basic_stringIcNS_11char_traitsIcEENS_9allocatorIcEEEC2B8ue170006Emc, symObjAddr: 0x11C8, symBinAddr: 0x1000056E4, symSize: 0x4C }
  - { offsetInCU: 0x103DE, offset: 0x103DE, size: 0x8, addend: 0x0, symName: __ZNSt3__112basic_stringIcNS_11char_traitsIcEENS_9allocatorIcEEEC2B8ue170006Emc, symObjAddr: 0x11C8, symBinAddr: 0x1000056E4, symSize: 0x4C }
  - { offsetInCU: 0x103E6, offset: 0x103E6, size: 0x8, addend: 0x0, symName: __ZNSt3__117__compressed_pairINS_12basic_stringIcNS_11char_traitsIcEENS_9allocatorIcEEE5__repES5_EC1B8ue170006INS_18__default_init_tagESA_EEOT_OT0_, symObjAddr: 0x1214, symBinAddr: 0x100005730, symSize: 0x3C }
  - { offsetInCU: 0x10443, offset: 0x10443, size: 0x8, addend: 0x0, symName: __ZNSt3__117__compressed_pairINS_12basic_stringIcNS_11char_traitsIcEENS_9allocatorIcEEE5__repES5_EC1B8ue170006INS_18__default_init_tagESA_EEOT_OT0_, symObjAddr: 0x1214, symBinAddr: 0x100005730, symSize: 0x3C }
  - { offsetInCU: 0x1044B, offset: 0x1044B, size: 0x8, addend: 0x0, symName: __ZNSt3__117__compressed_pairINS_12basic_stringIcNS_11char_traitsIcEENS_9allocatorIcEEE5__repES5_EC2B8ue170006INS_18__default_init_tagESA_EEOT_OT0_, symObjAddr: 0x1250, symBinAddr: 0x10000576C, symSize: 0x3C }
  - { offsetInCU: 0x104B7, offset: 0x104B7, size: 0x8, addend: 0x0, symName: __ZNSt3__117__compressed_pairINS_12basic_stringIcNS_11char_traitsIcEENS_9allocatorIcEEE5__repES5_EC2B8ue170006INS_18__default_init_tagESA_EEOT_OT0_, symObjAddr: 0x1250, symBinAddr: 0x10000576C, symSize: 0x3C }
  - { offsetInCU: 0x104BF, offset: 0x104BF, size: 0x8, addend: 0x0, symName: __ZNSt3__122__compressed_pair_elemINS_12basic_stringIcNS_11char_traitsIcEENS_9allocatorIcEEE5__repELi0ELb0EEC2B8ue170006ENS_18__default_init_tagE, symObjAddr: 0x128C, symBinAddr: 0x1000057A8, symSize: 0x14 }
  - { offsetInCU: 0x1052B, offset: 0x1052B, size: 0x8, addend: 0x0, symName: __ZNSt3__122__compressed_pair_elemINS_12basic_stringIcNS_11char_traitsIcEENS_9allocatorIcEEE5__repELi0ELb0EEC2B8ue170006ENS_18__default_init_tagE, symObjAddr: 0x128C, symBinAddr: 0x1000057A8, symSize: 0x14 }
  - { offsetInCU: 0x10533, offset: 0x10533, size: 0x8, addend: 0x0, symName: __ZNSt3__122__compressed_pair_elemINS_9allocatorIcEELi1ELb1EEC2B8ue170006ENS_18__default_init_tagE, symObjAddr: 0x12A0, symBinAddr: 0x1000057BC, symSize: 0x2C }
  - { offsetInCU: 0x10571, offset: 0x10571, size: 0x8, addend: 0x0, symName: __ZNSt3__122__compressed_pair_elemINS_9allocatorIcEELi1ELb1EEC2B8ue170006ENS_18__default_init_tagE, symObjAddr: 0x12A0, symBinAddr: 0x1000057BC, symSize: 0x2C }
  - { offsetInCU: 0x10579, offset: 0x10579, size: 0x8, addend: 0x0, symName: __ZNSt3__19allocatorIcEC2B8ue170006Ev, symObjAddr: 0x12CC, symBinAddr: 0x1000057E8, symSize: 0x2C }
  - { offsetInCU: 0x105B6, offset: 0x105B6, size: 0x8, addend: 0x0, symName: __ZNSt3__19allocatorIcEC2B8ue170006Ev, symObjAddr: 0x12CC, symBinAddr: 0x1000057E8, symSize: 0x2C }
  - { offsetInCU: 0x105BE, offset: 0x105BE, size: 0x8, addend: 0x0, symName: __ZNSt3__116__non_trivial_ifILb1ENS_9allocatorIcEEEC2B8ue170006Ev, symObjAddr: 0x12F8, symBinAddr: 0x100005814, symSize: 0x14 }
  - { offsetInCU: 0x105EC, offset: 0x105EC, size: 0x8, addend: 0x0, symName: __ZNSt3__116__non_trivial_ifILb1ENS_9allocatorIcEEEC2B8ue170006Ev, symObjAddr: 0x12F8, symBinAddr: 0x100005814, symSize: 0x14 }
  - { offsetInCU: 0x105F4, offset: 0x105F4, size: 0x8, addend: 0x0, symName: __ZNSt3__112__to_addressB8ue170006IcEEPT_S2_, symObjAddr: 0x130C, symBinAddr: 0x100005828, symSize: 0x14 }
  - { offsetInCU: 0x10623, offset: 0x10623, size: 0x8, addend: 0x0, symName: __ZNSt3__112basic_stringIcNS_11char_traitsIcEENS_9allocatorIcEEE13__get_pointerB8ue170006Ev, symObjAddr: 0x1320, symBinAddr: 0x10000583C, symSize: 0x54 }
  - { offsetInCU: 0x1062B, offset: 0x1062B, size: 0x8, addend: 0x0, symName: __ZNKSt3__112basic_stringIcNS_11char_traitsIcEENS_9allocatorIcEEE9__is_longB8ue170006Ev, symObjAddr: 0x1374, symBinAddr: 0x100005890, symSize: 0x38 }
  - { offsetInCU: 0x10655, offset: 0x10655, size: 0x8, addend: 0x0, symName: __ZNKSt3__112basic_stringIcNS_11char_traitsIcEENS_9allocatorIcEEE9__is_longB8ue170006Ev, symObjAddr: 0x1374, symBinAddr: 0x100005890, symSize: 0x38 }
  - { offsetInCU: 0x1065D, offset: 0x1065D, size: 0x8, addend: 0x0, symName: __ZNSt3__112basic_stringIcNS_11char_traitsIcEENS_9allocatorIcEEE18__get_long_pointerB8ue170006Ev, symObjAddr: 0x13AC, symBinAddr: 0x1000058C8, symSize: 0x28 }
  - { offsetInCU: 0x10687, offset: 0x10687, size: 0x8, addend: 0x0, symName: __ZNSt3__112basic_stringIcNS_11char_traitsIcEENS_9allocatorIcEEE18__get_long_pointerB8ue170006Ev, symObjAddr: 0x13AC, symBinAddr: 0x1000058C8, symSize: 0x28 }
  - { offsetInCU: 0x1068F, offset: 0x1068F, size: 0x8, addend: 0x0, symName: __ZNSt3__112basic_stringIcNS_11char_traitsIcEENS_9allocatorIcEEE19__get_short_pointerB8ue170006Ev, symObjAddr: 0x13D4, symBinAddr: 0x1000058F0, symSize: 0x28 }
  - { offsetInCU: 0x106B9, offset: 0x106B9, size: 0x8, addend: 0x0, symName: __ZNSt3__112basic_stringIcNS_11char_traitsIcEENS_9allocatorIcEEE19__get_short_pointerB8ue170006Ev, symObjAddr: 0x13D4, symBinAddr: 0x1000058F0, symSize: 0x28 }
  - { offsetInCU: 0x106C1, offset: 0x106C1, size: 0x8, addend: 0x0, symName: __ZNKSt3__117__compressed_pairINS_12basic_stringIcNS_11char_traitsIcEENS_9allocatorIcEEE5__repES5_E5firstB8ue170006Ev, symObjAddr: 0x13FC, symBinAddr: 0x100005918, symSize: 0x24 }
  - { offsetInCU: 0x106EB, offset: 0x106EB, size: 0x8, addend: 0x0, symName: __ZNKSt3__117__compressed_pairINS_12basic_stringIcNS_11char_traitsIcEENS_9allocatorIcEEE5__repES5_E5firstB8ue170006Ev, symObjAddr: 0x13FC, symBinAddr: 0x100005918, symSize: 0x24 }
  - { offsetInCU: 0x106F3, offset: 0x106F3, size: 0x8, addend: 0x0, symName: __ZNKSt3__122__compressed_pair_elemINS_12basic_stringIcNS_11char_traitsIcEENS_9allocatorIcEEE5__repELi0ELb0EE5__getB8ue170006Ev, symObjAddr: 0x1420, symBinAddr: 0x10000593C, symSize: 0x14 }
  - { offsetInCU: 0x1071D, offset: 0x1071D, size: 0x8, addend: 0x0, symName: __ZNKSt3__122__compressed_pair_elemINS_12basic_stringIcNS_11char_traitsIcEENS_9allocatorIcEEE5__repELi0ELb0EE5__getB8ue170006Ev, symObjAddr: 0x1420, symBinAddr: 0x10000593C, symSize: 0x14 }
  - { offsetInCU: 0x10725, offset: 0x10725, size: 0x8, addend: 0x0, symName: __ZNSt3__117__compressed_pairINS_12basic_stringIcNS_11char_traitsIcEENS_9allocatorIcEEE5__repES5_E5firstB8ue170006Ev, symObjAddr: 0x1434, symBinAddr: 0x100005950, symSize: 0x24 }
  - { offsetInCU: 0x10750, offset: 0x10750, size: 0x8, addend: 0x0, symName: __ZNSt3__117__compressed_pairINS_12basic_stringIcNS_11char_traitsIcEENS_9allocatorIcEEE5__repES5_E5firstB8ue170006Ev, symObjAddr: 0x1434, symBinAddr: 0x100005950, symSize: 0x24 }
  - { offsetInCU: 0x10758, offset: 0x10758, size: 0x8, addend: 0x0, symName: __ZNSt3__122__compressed_pair_elemINS_12basic_stringIcNS_11char_traitsIcEENS_9allocatorIcEEE5__repELi0ELb0EE5__getB8ue170006Ev, symObjAddr: 0x1458, symBinAddr: 0x100005974, symSize: 0x14 }
  - { offsetInCU: 0x10782, offset: 0x10782, size: 0x8, addend: 0x0, symName: __ZNSt3__122__compressed_pair_elemINS_12basic_stringIcNS_11char_traitsIcEENS_9allocatorIcEEE5__repELi0ELb0EE5__getB8ue170006Ev, symObjAddr: 0x1458, symBinAddr: 0x100005974, symSize: 0x14 }
  - { offsetInCU: 0x1078A, offset: 0x1078A, size: 0x8, addend: 0x0, symName: __ZNSt3__114pointer_traitsIPcE10pointer_toB8ue170006ERc, symObjAddr: 0x146C, symBinAddr: 0x100005988, symSize: 0x14 }
  - { offsetInCU: 0x107B5, offset: 0x107B5, size: 0x8, addend: 0x0, symName: __ZNSt3__114pointer_traitsIPcE10pointer_toB8ue170006ERc, symObjAddr: 0x146C, symBinAddr: 0x100005988, symSize: 0x14 }
  - { offsetInCU: 0x107BD, offset: 0x107BD, size: 0x8, addend: 0x0, symName: __ZNSt3__119ostreambuf_iteratorIcNS_11char_traitsIcEEEC2B8ue170006ERNS_13basic_ostreamIcS2_EE, symObjAddr: 0x1480, symBinAddr: 0x10000599C, symSize: 0x54 }
  - { offsetInCU: 0x107E5, offset: 0x107E5, size: 0x8, addend: 0x0, symName: __ZNSt3__119ostreambuf_iteratorIcNS_11char_traitsIcEEEC2B8ue170006ERNS_13basic_ostreamIcS2_EE, symObjAddr: 0x1480, symBinAddr: 0x10000599C, symSize: 0x54 }
  - { offsetInCU: 0x107ED, offset: 0x107ED, size: 0x8, addend: 0x0, symName: __ZNKSt3__19basic_iosIcNS_11char_traitsIcEEE5rdbufB8ue170006Ev, symObjAddr: 0x14D4, symBinAddr: 0x1000059F0, symSize: 0x24 }
  - { offsetInCU: 0x1082C, offset: 0x1082C, size: 0x8, addend: 0x0, symName: __ZNKSt3__19basic_iosIcNS_11char_traitsIcEEE5rdbufB8ue170006Ev, symObjAddr: 0x14D4, symBinAddr: 0x1000059F0, symSize: 0x24 }
  - { offsetInCU: 0x10834, offset: 0x10834, size: 0x8, addend: 0x0, symName: __ZNKSt3__18ios_base5rdbufB8ue170006Ev, symObjAddr: 0x14F8, symBinAddr: 0x100005A14, symSize: 0x18 }
  - { offsetInCU: 0x10860, offset: 0x10860, size: 0x8, addend: 0x0, symName: __ZNKSt3__18ios_base5rdbufB8ue170006Ev, symObjAddr: 0x14F8, symBinAddr: 0x100005A14, symSize: 0x18 }
  - { offsetInCU: 0x10868, offset: 0x10868, size: 0x8, addend: 0x0, symName: __ZNSt3__111char_traitsIcE11eq_int_typeB8ue170006Eii, symObjAddr: 0x1510, symBinAddr: 0x100005A2C, symSize: 0x28 }
  - { offsetInCU: 0x10893, offset: 0x10893, size: 0x8, addend: 0x0, symName: __ZNSt3__111char_traitsIcE11eq_int_typeB8ue170006Eii, symObjAddr: 0x1510, symBinAddr: 0x100005A2C, symSize: 0x28 }
  - { offsetInCU: 0x1089B, offset: 0x1089B, size: 0x8, addend: 0x0, symName: __ZNSt3__111char_traitsIcE3eofB8ue170006Ev, symObjAddr: 0x1538, symBinAddr: 0x100005A54, symSize: 0x8 }
  - { offsetInCU: 0x108D7, offset: 0x108D7, size: 0x8, addend: 0x0, symName: __ZNSt3__111char_traitsIcE3eofB8ue170006Ev, symObjAddr: 0x1538, symBinAddr: 0x100005A54, symSize: 0x8 }
  - { offsetInCU: 0x108DF, offset: 0x108DF, size: 0x8, addend: 0x0, symName: __ZNKSt3__19basic_iosIcNS_11char_traitsIcEEE5widenB8ue170006Ec, symObjAddr: 0x1540, symBinAddr: 0x100005A5C, symSize: 0x84 }
  - { offsetInCU: 0x108F3, offset: 0x108F3, size: 0x8, addend: 0x0, symName: __ZNKSt3__19basic_iosIcNS_11char_traitsIcEEE5widenB8ue170006Ec, symObjAddr: 0x1540, symBinAddr: 0x100005A5C, symSize: 0x84 }
  - { offsetInCU: 0x108FB, offset: 0x108FB, size: 0x8, addend: 0x0, symName: __ZNSt3__19use_facetB8ue170006INS_5ctypeIcEEEERKT_RKNS_6localeE, symObjAddr: 0x15C4, symBinAddr: 0x100005AE0, symSize: 0x2C }
  - { offsetInCU: 0x1099D, offset: 0x1099D, size: 0x8, addend: 0x0, symName: __ZNKSt3__15ctypeIcE5widenB8ue170006Ec, symObjAddr: 0x15F0, symBinAddr: 0x100005B0C, symSize: 0x38 }
  - { offsetInCU: 0x109A5, offset: 0x109A5, size: 0x8, addend: 0x0, symName: __ZNSt3__18ios_base8setstateB8ue170006Ej, symObjAddr: 0x1628, symBinAddr: 0x100005B44, symSize: 0x34 }
  - { offsetInCU: 0x109E1, offset: 0x109E1, size: 0x8, addend: 0x0, symName: __ZNSt3__18ios_base8setstateB8ue170006Ej, symObjAddr: 0x1628, symBinAddr: 0x100005B44, symSize: 0x34 }
  - { offsetInCU: 0x109E9, offset: 0x109E9, size: 0x8, addend: 0x0, symName: __ZNSt3__118__constexpr_strlenB8ue170006EPKc, symObjAddr: 0x165C, symBinAddr: 0x100005B78, symSize: 0x24 }
  - { offsetInCU: 0x10A28, offset: 0x10A28, size: 0x8, addend: 0x0, symName: __ZNSt3__16vectorINS_4pairIifEENS_9allocatorIS2_EEEC2B8ue170006Ev, symObjAddr: 0x1680, symBinAddr: 0x100005B9C, symSize: 0x4C }
  - { offsetInCU: 0x10A30, offset: 0x10A30, size: 0x8, addend: 0x0, symName: __ZNSt3__117__compressed_pairIPNS_4pairIifEENS_9allocatorIS2_EEEC1B8ue170006IDnNS_18__default_init_tagEEEOT_OT0_, symObjAddr: 0x16CC, symBinAddr: 0x100005BE8, symSize: 0x3C }
  - { offsetInCU: 0x10A67, offset: 0x10A67, size: 0x8, addend: 0x0, symName: __ZNSt3__117__compressed_pairIPNS_4pairIifEENS_9allocatorIS2_EEEC1B8ue170006IDnNS_18__default_init_tagEEEOT_OT0_, symObjAddr: 0x16CC, symBinAddr: 0x100005BE8, symSize: 0x3C }
  - { offsetInCU: 0x10A6F, offset: 0x10A6F, size: 0x8, addend: 0x0, symName: __ZNSt3__117__compressed_pairIPNS_4pairIifEENS_9allocatorIS2_EEEC2B8ue170006IDnNS_18__default_init_tagEEEOT_OT0_, symObjAddr: 0x1708, symBinAddr: 0x100005C24, symSize: 0x40 }
  - { offsetInCU: 0x10ADB, offset: 0x10ADB, size: 0x8, addend: 0x0, symName: __ZNSt3__117__compressed_pairIPNS_4pairIifEENS_9allocatorIS2_EEEC2B8ue170006IDnNS_18__default_init_tagEEEOT_OT0_, symObjAddr: 0x1708, symBinAddr: 0x100005C24, symSize: 0x40 }
  - { offsetInCU: 0x10AE3, offset: 0x10AE3, size: 0x8, addend: 0x0, symName: __ZNSt3__122__compressed_pair_elemIPNS_4pairIifEELi0ELb0EEC2B8ue170006IDnvEEOT_, symObjAddr: 0x1748, symBinAddr: 0x100005C64, symSize: 0x1C }
  - { offsetInCU: 0x10B4F, offset: 0x10B4F, size: 0x8, addend: 0x0, symName: __ZNSt3__122__compressed_pair_elemIPNS_4pairIifEELi0ELb0EEC2B8ue170006IDnvEEOT_, symObjAddr: 0x1748, symBinAddr: 0x100005C64, symSize: 0x1C }
  - { offsetInCU: 0x10B57, offset: 0x10B57, size: 0x8, addend: 0x0, symName: __ZNSt3__122__compressed_pair_elemINS_9allocatorINS_4pairIifEEEELi1ELb1EEC2B8ue170006ENS_18__default_init_tagE, symObjAddr: 0x1764, symBinAddr: 0x100005C80, symSize: 0x2C }
  - { offsetInCU: 0x10BA6, offset: 0x10BA6, size: 0x8, addend: 0x0, symName: __ZNSt3__122__compressed_pair_elemINS_9allocatorINS_4pairIifEEEELi1ELb1EEC2B8ue170006ENS_18__default_init_tagE, symObjAddr: 0x1764, symBinAddr: 0x100005C80, symSize: 0x2C }
  - { offsetInCU: 0x10BAE, offset: 0x10BAE, size: 0x8, addend: 0x0, symName: __ZNSt3__19allocatorINS_4pairIifEEEC2B8ue170006Ev, symObjAddr: 0x1790, symBinAddr: 0x100005CAC, symSize: 0x2C }
  - { offsetInCU: 0x10BEB, offset: 0x10BEB, size: 0x8, addend: 0x0, symName: __ZNSt3__19allocatorINS_4pairIifEEEC2B8ue170006Ev, symObjAddr: 0x1790, symBinAddr: 0x100005CAC, symSize: 0x2C }
  - { offsetInCU: 0x10BF3, offset: 0x10BF3, size: 0x8, addend: 0x0, symName: __ZNSt3__116__non_trivial_ifILb1ENS_9allocatorINS_4pairIifEEEEEC2B8ue170006Ev, symObjAddr: 0x17BC, symBinAddr: 0x100005CD8, symSize: 0x14 }
  - { offsetInCU: 0x10C21, offset: 0x10C21, size: 0x8, addend: 0x0, symName: __ZNSt3__116__non_trivial_ifILb1ENS_9allocatorINS_4pairIifEEEEEC2B8ue170006Ev, symObjAddr: 0x17BC, symBinAddr: 0x100005CD8, symSize: 0x14 }
  - { offsetInCU: 0x10C29, offset: 0x10C29, size: 0x8, addend: 0x0, symName: __ZNSt3__16vectorINS_4pairIifEENS_9allocatorIS2_EEED2B8ue170006Ev, symObjAddr: 0x17D0, symBinAddr: 0x100005CEC, symSize: 0x44 }
  - { offsetInCU: 0x10C58, offset: 0x10C58, size: 0x8, addend: 0x0, symName: __ZNSt3__16vectorINS_4pairIifEENS_9allocatorIS2_EEED2B8ue170006Ev, symObjAddr: 0x17D0, symBinAddr: 0x100005CEC, symSize: 0x44 }
  - { offsetInCU: 0x10C60, offset: 0x10C60, size: 0x8, addend: 0x0, symName: __ZNSt3__16vectorINS_4pairIifEENS_9allocatorIS2_EEE16__destroy_vectorC1B8ue170006ERS5_, symObjAddr: 0x1814, symBinAddr: 0x100005D30, symSize: 0x34 }
  - { offsetInCU: 0x10C8E, offset: 0x10C8E, size: 0x8, addend: 0x0, symName: __ZNSt3__16vectorINS_4pairIifEENS_9allocatorIS2_EEE16__destroy_vectorC1B8ue170006ERS5_, symObjAddr: 0x1814, symBinAddr: 0x100005D30, symSize: 0x34 }
  - { offsetInCU: 0x10C96, offset: 0x10C96, size: 0x8, addend: 0x0, symName: __ZNSt3__16vectorINS_4pairIifEENS_9allocatorIS2_EEE16__destroy_vectorclB8ue170006Ev, symObjAddr: 0x1848, symBinAddr: 0x100005D64, symSize: 0x90 }
  - { offsetInCU: 0x10CD7, offset: 0x10CD7, size: 0x8, addend: 0x0, symName: __ZNSt3__16vectorINS_4pairIifEENS_9allocatorIS2_EEE16__destroy_vectorclB8ue170006Ev, symObjAddr: 0x1848, symBinAddr: 0x100005D64, symSize: 0x90 }
  - { offsetInCU: 0x10CDF, offset: 0x10CDF, size: 0x8, addend: 0x0, symName: __ZNSt3__16vectorINS_4pairIifEENS_9allocatorIS2_EEE16__destroy_vectorC2B8ue170006ERS5_, symObjAddr: 0x18D8, symBinAddr: 0x100005DF4, symSize: 0x20 }
  - { offsetInCU: 0x10D09, offset: 0x10D09, size: 0x8, addend: 0x0, symName: __ZNSt3__16vectorINS_4pairIifEENS_9allocatorIS2_EEE16__destroy_vectorC2B8ue170006ERS5_, symObjAddr: 0x18D8, symBinAddr: 0x100005DF4, symSize: 0x20 }
  - { offsetInCU: 0x10D11, offset: 0x10D11, size: 0x8, addend: 0x0, symName: __ZNSt3__16vectorINS_4pairIifEENS_9allocatorIS2_EEE7__clearB8ue170006Ev, symObjAddr: 0x18F8, symBinAddr: 0x100005E14, symSize: 0x28 }
  - { offsetInCU: 0x10D53, offset: 0x10D53, size: 0x8, addend: 0x0, symName: __ZNSt3__16vectorINS_4pairIifEENS_9allocatorIS2_EEE7__clearB8ue170006Ev, symObjAddr: 0x18F8, symBinAddr: 0x100005E14, symSize: 0x28 }
  - { offsetInCU: 0x10D5B, offset: 0x10D5B, size: 0x8, addend: 0x0, symName: __ZNKSt3__16vectorINS_4pairIifEENS_9allocatorIS2_EEE17__annotate_deleteB8ue170006Ev, symObjAddr: 0x1920, symBinAddr: 0x100005E3C, symSize: 0xB8 }
  - { offsetInCU: 0x10D85, offset: 0x10D85, size: 0x8, addend: 0x0, symName: __ZNKSt3__16vectorINS_4pairIifEENS_9allocatorIS2_EEE17__annotate_deleteB8ue170006Ev, symObjAddr: 0x1920, symBinAddr: 0x100005E3C, symSize: 0xB8 }
  - { offsetInCU: 0x10D8D, offset: 0x10D8D, size: 0x8, addend: 0x0, symName: __ZNSt3__116allocator_traitsINS_9allocatorINS_4pairIifEEEEE10deallocateB8ue170006ERS4_PS3_m, symObjAddr: 0x19D8, symBinAddr: 0x100005EF4, symSize: 0x34 }
  - { offsetInCU: 0x10DB7, offset: 0x10DB7, size: 0x8, addend: 0x0, symName: __ZNSt3__116allocator_traitsINS_9allocatorINS_4pairIifEEEEE10deallocateB8ue170006ERS4_PS3_m, symObjAddr: 0x19D8, symBinAddr: 0x100005EF4, symSize: 0x34 }
  - { offsetInCU: 0x10DBF, offset: 0x10DBF, size: 0x8, addend: 0x0, symName: __ZNSt3__16vectorINS_4pairIifEENS_9allocatorIS2_EEE7__allocB8ue170006Ev, symObjAddr: 0x1A0C, symBinAddr: 0x100005F28, symSize: 0x28 }
  - { offsetInCU: 0x10E0D, offset: 0x10E0D, size: 0x8, addend: 0x0, symName: __ZNSt3__16vectorINS_4pairIifEENS_9allocatorIS2_EEE7__allocB8ue170006Ev, symObjAddr: 0x1A0C, symBinAddr: 0x100005F28, symSize: 0x28 }
  - { offsetInCU: 0x10E15, offset: 0x10E15, size: 0x8, addend: 0x0, symName: __ZNKSt3__16vectorINS_4pairIifEENS_9allocatorIS2_EEE8capacityB8ue170006Ev, symObjAddr: 0x1A34, symBinAddr: 0x100005F50, symSize: 0x40 }
  - { offsetInCU: 0x10E3F, offset: 0x10E3F, size: 0x8, addend: 0x0, symName: __ZNKSt3__16vectorINS_4pairIifEENS_9allocatorIS2_EEE8capacityB8ue170006Ev, symObjAddr: 0x1A34, symBinAddr: 0x100005F50, symSize: 0x40 }
  - { offsetInCU: 0x10E47, offset: 0x10E47, size: 0x8, addend: 0x0, symName: __ZNSt3__16vectorINS_4pairIifEENS_9allocatorIS2_EEE22__base_destruct_at_endB8ue170006EPS2_, symObjAddr: 0x1A74, symBinAddr: 0x100005F90, symSize: 0x8C }
  - { offsetInCU: 0x10E71, offset: 0x10E71, size: 0x8, addend: 0x0, symName: __ZNSt3__16vectorINS_4pairIifEENS_9allocatorIS2_EEE22__base_destruct_at_endB8ue170006EPS2_, symObjAddr: 0x1A74, symBinAddr: 0x100005F90, symSize: 0x8C }
  - { offsetInCU: 0x10E79, offset: 0x10E79, size: 0x8, addend: 0x0, symName: __ZNSt3__116allocator_traitsINS_9allocatorINS_4pairIifEEEEE7destroyB8ue170006IS3_vEEvRS4_PT_, symObjAddr: 0x1B00, symBinAddr: 0x10000601C, symSize: 0x2C }
  - { offsetInCU: 0x10EC9, offset: 0x10EC9, size: 0x8, addend: 0x0, symName: __ZNSt3__116allocator_traitsINS_9allocatorINS_4pairIifEEEEE7destroyB8ue170006IS3_vEEvRS4_PT_, symObjAddr: 0x1B00, symBinAddr: 0x10000601C, symSize: 0x2C }
  - { offsetInCU: 0x10ED1, offset: 0x10ED1, size: 0x8, addend: 0x0, symName: __ZNSt3__112__to_addressB8ue170006INS_4pairIifEEEEPT_S4_, symObjAddr: 0x1B2C, symBinAddr: 0x100006048, symSize: 0x14 }
  - { offsetInCU: 0x10F1A, offset: 0x10F1A, size: 0x8, addend: 0x0, symName: __ZNSt3__19allocatorINS_4pairIifEEE7destroyB8ue170006EPS2_, symObjAddr: 0x1B40, symBinAddr: 0x10000605C, symSize: 0x14 }
  - { offsetInCU: 0x10F22, offset: 0x10F22, size: 0x8, addend: 0x0, symName: __ZNKSt3__16vectorINS_4pairIifEENS_9allocatorIS2_EEE31__annotate_contiguous_containerB8ue170006EPKvS7_S7_S7_, symObjAddr: 0x1B54, symBinAddr: 0x100006070, symSize: 0x20 }
  - { offsetInCU: 0x10F5F, offset: 0x10F5F, size: 0x8, addend: 0x0, symName: __ZNKSt3__16vectorINS_4pairIifEENS_9allocatorIS2_EEE31__annotate_contiguous_containerB8ue170006EPKvS7_S7_S7_, symObjAddr: 0x1B54, symBinAddr: 0x100006070, symSize: 0x20 }
  - { offsetInCU: 0x10F67, offset: 0x10F67, size: 0x8, addend: 0x0, symName: __ZNKSt3__16vectorINS_4pairIifEENS_9allocatorIS2_EEE4dataB8ue170006Ev, symObjAddr: 0x1B74, symBinAddr: 0x100006090, symSize: 0x28 }
  - { offsetInCU: 0x10FD2, offset: 0x10FD2, size: 0x8, addend: 0x0, symName: __ZNKSt3__16vectorINS_4pairIifEENS_9allocatorIS2_EEE4dataB8ue170006Ev, symObjAddr: 0x1B74, symBinAddr: 0x100006090, symSize: 0x28 }
  - { offsetInCU: 0x10FDA, offset: 0x10FDA, size: 0x8, addend: 0x0, symName: __ZNKSt3__16vectorINS_4pairIifEENS_9allocatorIS2_EEE4sizeB8ue170006Ev, symObjAddr: 0x1B9C, symBinAddr: 0x1000060B8, symSize: 0x28 }
  - { offsetInCU: 0x11004, offset: 0x11004, size: 0x8, addend: 0x0, symName: __ZNKSt3__16vectorINS_4pairIifEENS_9allocatorIS2_EEE4sizeB8ue170006Ev, symObjAddr: 0x1B9C, symBinAddr: 0x1000060B8, symSize: 0x28 }
  - { offsetInCU: 0x1100C, offset: 0x1100C, size: 0x8, addend: 0x0, symName: __ZNSt3__19allocatorINS_4pairIifEEE10deallocateB8ue170006EPS2_m, symObjAddr: 0x1BC4, symBinAddr: 0x1000060E0, symSize: 0x40 }
  - { offsetInCU: 0x11037, offset: 0x11037, size: 0x8, addend: 0x0, symName: __ZNSt3__19allocatorINS_4pairIifEEE10deallocateB8ue170006EPS2_m, symObjAddr: 0x1BC4, symBinAddr: 0x1000060E0, symSize: 0x40 }
  - { offsetInCU: 0x1103F, offset: 0x1103F, size: 0x8, addend: 0x0, symName: __ZNSt3__119__libcpp_deallocateB8ue170006EPvmm, symObjAddr: 0x1C04, symBinAddr: 0x100006120, symSize: 0x60 }
  - { offsetInCU: 0x1108D, offset: 0x1108D, size: 0x8, addend: 0x0, symName: __ZNSt3__117__compressed_pairIPNS_4pairIifEENS_9allocatorIS2_EEE6secondB8ue170006Ev, symObjAddr: 0x1D2C, symBinAddr: 0x100006248, symSize: 0x24 }
  - { offsetInCU: 0x11095, offset: 0x11095, size: 0x8, addend: 0x0, symName: __ZNSt3__122__compressed_pair_elemINS_9allocatorINS_4pairIifEEEELi1ELb1EE5__getB8ue170006Ev, symObjAddr: 0x1D50, symBinAddr: 0x10000626C, symSize: 0x14 }
  - { offsetInCU: 0x110BF, offset: 0x110BF, size: 0x8, addend: 0x0, symName: __ZNSt3__122__compressed_pair_elemINS_9allocatorINS_4pairIifEEEELi1ELb1EE5__getB8ue170006Ev, symObjAddr: 0x1D50, symBinAddr: 0x10000626C, symSize: 0x14 }
  - { offsetInCU: 0x110C7, offset: 0x110C7, size: 0x8, addend: 0x0, symName: __ZNKSt3__16vectorINS_4pairIifEENS_9allocatorIS2_EEE9__end_capB8ue170006Ev, symObjAddr: 0x1D64, symBinAddr: 0x100006280, symSize: 0x28 }
  - { offsetInCU: 0x110F2, offset: 0x110F2, size: 0x8, addend: 0x0, symName: __ZNKSt3__16vectorINS_4pairIifEENS_9allocatorIS2_EEE9__end_capB8ue170006Ev, symObjAddr: 0x1D64, symBinAddr: 0x100006280, symSize: 0x28 }
  - { offsetInCU: 0x110FA, offset: 0x110FA, size: 0x8, addend: 0x0, symName: __ZNKSt3__117__compressed_pairIPNS_4pairIifEENS_9allocatorIS2_EEE5firstB8ue170006Ev, symObjAddr: 0x1D8C, symBinAddr: 0x1000062A8, symSize: 0x24 }
  - { offsetInCU: 0x11124, offset: 0x11124, size: 0x8, addend: 0x0, symName: __ZNKSt3__117__compressed_pairIPNS_4pairIifEENS_9allocatorIS2_EEE5firstB8ue170006Ev, symObjAddr: 0x1D8C, symBinAddr: 0x1000062A8, symSize: 0x24 }
  - { offsetInCU: 0x1112C, offset: 0x1112C, size: 0x8, addend: 0x0, symName: __ZNKSt3__122__compressed_pair_elemIPNS_4pairIifEELi0ELb0EE5__getB8ue170006Ev, symObjAddr: 0x1DB0, symBinAddr: 0x1000062CC, symSize: 0x14 }
  - { offsetInCU: 0x11156, offset: 0x11156, size: 0x8, addend: 0x0, symName: __ZNKSt3__122__compressed_pair_elemIPNS_4pairIifEELi0ELb0EE5__getB8ue170006Ev, symObjAddr: 0x1DB0, symBinAddr: 0x1000062CC, symSize: 0x14 }
  - { offsetInCU: 0x1115E, offset: 0x1115E, size: 0x8, addend: 0x0, symName: __ZNSt3__16vectorINS_4pairIifEENS_9allocatorIS2_EEE9__end_capB8ue170006Ev, symObjAddr: 0x1DC4, symBinAddr: 0x1000062E0, symSize: 0x28 }
  - { offsetInCU: 0x11189, offset: 0x11189, size: 0x8, addend: 0x0, symName: __ZNSt3__16vectorINS_4pairIifEENS_9allocatorIS2_EEE9__end_capB8ue170006Ev, symObjAddr: 0x1DC4, symBinAddr: 0x1000062E0, symSize: 0x28 }
  - { offsetInCU: 0x11191, offset: 0x11191, size: 0x8, addend: 0x0, symName: __ZNSt3__16vectorINS_4pairIifEENS_9allocatorIS2_EEE22__construct_one_at_endB8ue170006IJS2_EEEvDpOT_, symObjAddr: 0x1DEC, symBinAddr: 0x100006308, symSize: 0x90 }
  - { offsetInCU: 0x111BB, offset: 0x111BB, size: 0x8, addend: 0x0, symName: __ZNSt3__16vectorINS_4pairIifEENS_9allocatorIS2_EEE22__construct_one_at_endB8ue170006IJS2_EEEvDpOT_, symObjAddr: 0x1DEC, symBinAddr: 0x100006308, symSize: 0x90 }
  - { offsetInCU: 0x111C3, offset: 0x111C3, size: 0x8, addend: 0x0, symName: __ZNSt3__16vectorINS_4pairIifEENS_9allocatorIS2_EEE21__push_back_slow_pathIS2_EEvOT_, symObjAddr: 0x1E7C, symBinAddr: 0x100006398, symSize: 0xD8 }
  - { offsetInCU: 0x11221, offset: 0x11221, size: 0x8, addend: 0x0, symName: __ZNSt3__16vectorINS_4pairIifEENS_9allocatorIS2_EEE21__push_back_slow_pathIS2_EEvOT_, symObjAddr: 0x1E7C, symBinAddr: 0x100006398, symSize: 0xD8 }
  - { offsetInCU: 0x11229, offset: 0x11229, size: 0x8, addend: 0x0, symName: __ZNSt3__117__compressed_pairIPNS_4pairIifEENS_9allocatorIS2_EEE5firstB8ue170006Ev, symObjAddr: 0x1F54, symBinAddr: 0x100006470, symSize: 0x24 }
  - { offsetInCU: 0x1129B, offset: 0x1129B, size: 0x8, addend: 0x0, symName: __ZNSt3__117__compressed_pairIPNS_4pairIifEENS_9allocatorIS2_EEE5firstB8ue170006Ev, symObjAddr: 0x1F54, symBinAddr: 0x100006470, symSize: 0x24 }
  - { offsetInCU: 0x112A3, offset: 0x112A3, size: 0x8, addend: 0x0, symName: __ZNSt3__122__compressed_pair_elemIPNS_4pairIifEELi0ELb0EE5__getB8ue170006Ev, symObjAddr: 0x1F78, symBinAddr: 0x100006494, symSize: 0x14 }
  - { offsetInCU: 0x112CD, offset: 0x112CD, size: 0x8, addend: 0x0, symName: __ZNSt3__122__compressed_pair_elemIPNS_4pairIifEELi0ELb0EE5__getB8ue170006Ev, symObjAddr: 0x1F78, symBinAddr: 0x100006494, symSize: 0x14 }
  - { offsetInCU: 0x112D5, offset: 0x112D5, size: 0x8, addend: 0x0, symName: __ZNSt3__16vectorINS_4pairIifEENS_9allocatorIS2_EEE21_ConstructTransactionC1B8ue170006ERS5_m, symObjAddr: 0x1F8C, symBinAddr: 0x1000064A8, symSize: 0x3C }
  - { offsetInCU: 0x1132D, offset: 0x1132D, size: 0x8, addend: 0x0, symName: __ZNSt3__16vectorINS_4pairIifEENS_9allocatorIS2_EEE21_ConstructTransactionC1B8ue170006ERS5_m, symObjAddr: 0x1F8C, symBinAddr: 0x1000064A8, symSize: 0x3C }
  - { offsetInCU: 0x11335, offset: 0x11335, size: 0x8, addend: 0x0, symName: __ZNSt3__116allocator_traitsINS_9allocatorINS_4pairIifEEEEE9constructB8ue170006IS3_JS3_EvEEvRS4_PT_DpOT0_, symObjAddr: 0x1FC8, symBinAddr: 0x1000064E4, symSize: 0x34 }
  - { offsetInCU: 0x11389, offset: 0x11389, size: 0x8, addend: 0x0, symName: __ZNSt3__116allocator_traitsINS_9allocatorINS_4pairIifEEEEE9constructB8ue170006IS3_JS3_EvEEvRS4_PT_DpOT0_, symObjAddr: 0x1FC8, symBinAddr: 0x1000064E4, symSize: 0x34 }
  - { offsetInCU: 0x11391, offset: 0x11391, size: 0x8, addend: 0x0, symName: __ZNSt3__16vectorINS_4pairIifEENS_9allocatorIS2_EEE21_ConstructTransactionD1B8ue170006Ev, symObjAddr: 0x1FFC, symBinAddr: 0x100006518, symSize: 0x2C }
  - { offsetInCU: 0x113FC, offset: 0x113FC, size: 0x8, addend: 0x0, symName: __ZNSt3__16vectorINS_4pairIifEENS_9allocatorIS2_EEE21_ConstructTransactionD1B8ue170006Ev, symObjAddr: 0x1FFC, symBinAddr: 0x100006518, symSize: 0x2C }
  - { offsetInCU: 0x11404, offset: 0x11404, size: 0x8, addend: 0x0, symName: __ZNSt3__16vectorINS_4pairIifEENS_9allocatorIS2_EEE21_ConstructTransactionC2B8ue170006ERS5_m, symObjAddr: 0x2028, symBinAddr: 0x100006544, symSize: 0x44 }
  - { offsetInCU: 0x11432, offset: 0x11432, size: 0x8, addend: 0x0, symName: __ZNSt3__16vectorINS_4pairIifEENS_9allocatorIS2_EEE21_ConstructTransactionC2B8ue170006ERS5_m, symObjAddr: 0x2028, symBinAddr: 0x100006544, symSize: 0x44 }
  - { offsetInCU: 0x1143A, offset: 0x1143A, size: 0x8, addend: 0x0, symName: __ZNSt3__19allocatorINS_4pairIifEEE9constructB8ue170006IS2_JS2_EEEvPT_DpOT0_, symObjAddr: 0x206C, symBinAddr: 0x100006588, symSize: 0x28 }
  - { offsetInCU: 0x1148F, offset: 0x1148F, size: 0x8, addend: 0x0, symName: __ZNSt3__19allocatorINS_4pairIifEEE9constructB8ue170006IS2_JS2_EEEvPT_DpOT0_, symObjAddr: 0x206C, symBinAddr: 0x100006588, symSize: 0x28 }
  - { offsetInCU: 0x11497, offset: 0x11497, size: 0x8, addend: 0x0, symName: __ZNSt3__16vectorINS_4pairIifEENS_9allocatorIS2_EEE21_ConstructTransactionD2B8ue170006Ev, symObjAddr: 0x2094, symBinAddr: 0x1000065B0, symSize: 0x20 }
  - { offsetInCU: 0x11502, offset: 0x11502, size: 0x8, addend: 0x0, symName: __ZNSt3__16vectorINS_4pairIifEENS_9allocatorIS2_EEE21_ConstructTransactionD2B8ue170006Ev, symObjAddr: 0x2094, symBinAddr: 0x1000065B0, symSize: 0x20 }
  - { offsetInCU: 0x1150A, offset: 0x1150A, size: 0x8, addend: 0x0, symName: __ZNKSt3__16vectorINS_4pairIifEENS_9allocatorIS2_EEE11__recommendB8ue170006Em, symObjAddr: 0x20B4, symBinAddr: 0x1000065D0, symSize: 0xB4 }
  - { offsetInCU: 0x11538, offset: 0x11538, size: 0x8, addend: 0x0, symName: __ZNKSt3__16vectorINS_4pairIifEENS_9allocatorIS2_EEE11__recommendB8ue170006Em, symObjAddr: 0x20B4, symBinAddr: 0x1000065D0, symSize: 0xB4 }
  - { offsetInCU: 0x11540, offset: 0x11540, size: 0x8, addend: 0x0, symName: __ZNSt3__114__split_bufferINS_4pairIifEERNS_9allocatorIS2_EEEC1EmmS5_, symObjAddr: 0x2168, symBinAddr: 0x100006684, symSize: 0x44 }
  - { offsetInCU: 0x115A5, offset: 0x115A5, size: 0x8, addend: 0x0, symName: __ZNSt3__114__split_bufferINS_4pairIifEERNS_9allocatorIS2_EEEC1EmmS5_, symObjAddr: 0x2168, symBinAddr: 0x100006684, symSize: 0x44 }
  - { offsetInCU: 0x115AD, offset: 0x115AD, size: 0x8, addend: 0x0, symName: __ZNSt3__16vectorINS_4pairIifEENS_9allocatorIS2_EEE26__swap_out_circular_bufferERNS_14__split_bufferIS2_RS4_EE, symObjAddr: 0x21AC, symBinAddr: 0x1000066C8, symSize: 0x110 }
  - { offsetInCU: 0x11613, offset: 0x11613, size: 0x8, addend: 0x0, symName: __ZNSt3__114__split_bufferINS_4pairIifEERNS_9allocatorIS2_EEED1Ev, symObjAddr: 0x22BC, symBinAddr: 0x1000067D8, symSize: 0x2C }
  - { offsetInCU: 0x1161B, offset: 0x1161B, size: 0x8, addend: 0x0, symName: __ZNKSt3__16vectorINS_4pairIifEENS_9allocatorIS2_EEE8max_sizeEv, symObjAddr: 0x22E8, symBinAddr: 0x100006804, symSize: 0x60 }
  - { offsetInCU: 0x1164A, offset: 0x1164A, size: 0x8, addend: 0x0, symName: __ZNKSt3__16vectorINS_4pairIifEENS_9allocatorIS2_EEE8max_sizeEv, symObjAddr: 0x22E8, symBinAddr: 0x100006804, symSize: 0x60 }
  - { offsetInCU: 0x11652, offset: 0x11652, size: 0x8, addend: 0x0, symName: __ZNKSt3__16vectorINS_4pairIifEENS_9allocatorIS2_EEE20__throw_length_errorB8ue170006Ev, symObjAddr: 0x2348, symBinAddr: 0x100006864, symSize: 0x1C }
  - { offsetInCU: 0x1167E, offset: 0x1167E, size: 0x8, addend: 0x0, symName: __ZNKSt3__16vectorINS_4pairIifEENS_9allocatorIS2_EEE20__throw_length_errorB8ue170006Ev, symObjAddr: 0x2348, symBinAddr: 0x100006864, symSize: 0x1C }
  - { offsetInCU: 0x11686, offset: 0x11686, size: 0x8, addend: 0x0, symName: __ZNSt3__13maxB8ue170006ImEERKT_S3_S3_, symObjAddr: 0x2364, symBinAddr: 0x100006880, symSize: 0x2C }
  - { offsetInCU: 0x116C2, offset: 0x116C2, size: 0x8, addend: 0x0, symName: __ZNSt3__116allocator_traitsINS_9allocatorINS_4pairIifEEEEE8max_sizeB8ue170006IS4_vEEmRKS4_, symObjAddr: 0x23BC, symBinAddr: 0x1000068D8, symSize: 0x24 }
  - { offsetInCU: 0x116CA, offset: 0x116CA, size: 0x8, addend: 0x0, symName: __ZNKSt3__16vectorINS_4pairIifEENS_9allocatorIS2_EEE7__allocB8ue170006Ev, symObjAddr: 0x23E0, symBinAddr: 0x1000068FC, symSize: 0x28 }
  - { offsetInCU: 0x11700, offset: 0x11700, size: 0x8, addend: 0x0, symName: __ZNKSt3__16vectorINS_4pairIifEENS_9allocatorIS2_EEE7__allocB8ue170006Ev, symObjAddr: 0x23E0, symBinAddr: 0x1000068FC, symSize: 0x28 }
  - { offsetInCU: 0x11708, offset: 0x11708, size: 0x8, addend: 0x0, symName: __ZNSt3__114numeric_limitsIlE3maxB8ue170006Ev, symObjAddr: 0x2408, symBinAddr: 0x100006924, symSize: 0x14 }
  - { offsetInCU: 0x11732, offset: 0x11732, size: 0x8, addend: 0x0, symName: __ZNSt3__114numeric_limitsIlE3maxB8ue170006Ev, symObjAddr: 0x2408, symBinAddr: 0x100006924, symSize: 0x14 }
  - { offsetInCU: 0x1173A, offset: 0x1173A, size: 0x8, addend: 0x0, symName: __ZNSt3__13minB8ue170006ImNS_6__lessIvvEEEERKT_S5_S5_T0_, symObjAddr: 0x241C, symBinAddr: 0x100006938, symSize: 0x54 }
  - { offsetInCU: 0x11772, offset: 0x11772, size: 0x8, addend: 0x0, symName: __ZNKSt3__16__lessIvvEclB8ue170006ImmEEbRKT_RKT0_, symObjAddr: 0x2470, symBinAddr: 0x10000698C, symSize: 0x34 }
  - { offsetInCU: 0x1177A, offset: 0x1177A, size: 0x8, addend: 0x0, symName: __ZNKSt3__19allocatorINS_4pairIifEEE8max_sizeB8ue170006Ev, symObjAddr: 0x24A4, symBinAddr: 0x1000069C0, symSize: 0x14 }
  - { offsetInCU: 0x117E3, offset: 0x117E3, size: 0x8, addend: 0x0, symName: __ZNKSt3__19allocatorINS_4pairIifEEE8max_sizeB8ue170006Ev, symObjAddr: 0x24A4, symBinAddr: 0x1000069C0, symSize: 0x14 }
  - { offsetInCU: 0x117EB, offset: 0x117EB, size: 0x8, addend: 0x0, symName: __ZNKSt3__117__compressed_pairIPNS_4pairIifEENS_9allocatorIS2_EEE6secondB8ue170006Ev, symObjAddr: 0x24B8, symBinAddr: 0x1000069D4, symSize: 0x24 }
  - { offsetInCU: 0x11816, offset: 0x11816, size: 0x8, addend: 0x0, symName: __ZNKSt3__117__compressed_pairIPNS_4pairIifEENS_9allocatorIS2_EEE6secondB8ue170006Ev, symObjAddr: 0x24B8, symBinAddr: 0x1000069D4, symSize: 0x24 }
  - { offsetInCU: 0x1181E, offset: 0x1181E, size: 0x8, addend: 0x0, symName: __ZNKSt3__122__compressed_pair_elemINS_9allocatorINS_4pairIifEEEELi1ELb1EE5__getB8ue170006Ev, symObjAddr: 0x24DC, symBinAddr: 0x1000069F8, symSize: 0x14 }
  - { offsetInCU: 0x11848, offset: 0x11848, size: 0x8, addend: 0x0, symName: __ZNKSt3__122__compressed_pair_elemINS_9allocatorINS_4pairIifEEEELi1ELb1EE5__getB8ue170006Ev, symObjAddr: 0x24DC, symBinAddr: 0x1000069F8, symSize: 0x14 }
  - { offsetInCU: 0x11850, offset: 0x11850, size: 0x8, addend: 0x0, symName: __ZNSt3__123__libcpp_numeric_limitsIlLb1EE3maxB8ue170006Ev, symObjAddr: 0x24F0, symBinAddr: 0x100006A0C, symSize: 0x8 }
  - { offsetInCU: 0x1187B, offset: 0x1187B, size: 0x8, addend: 0x0, symName: __ZNSt3__123__libcpp_numeric_limitsIlLb1EE3maxB8ue170006Ev, symObjAddr: 0x24F0, symBinAddr: 0x100006A0C, symSize: 0x8 }
  - { offsetInCU: 0x11883, offset: 0x11883, size: 0x8, addend: 0x0, symName: __ZNSt3__120__throw_length_errorB8ue170006EPKc, symObjAddr: 0x24F8, symBinAddr: 0x100006A14, symSize: 0x64 }
  - { offsetInCU: 0x11898, offset: 0x11898, size: 0x8, addend: 0x0, symName: __ZNSt12length_errorC1B8ue170006EPKc, symObjAddr: 0x255C, symBinAddr: 0x100006A78, symSize: 0x34 }
  - { offsetInCU: 0x118A0, offset: 0x118A0, size: 0x8, addend: 0x0, symName: __ZNSt12length_errorC2B8ue170006EPKc, symObjAddr: 0x2590, symBinAddr: 0x100006AAC, symSize: 0x4C }
  - { offsetInCU: 0x118E0, offset: 0x118E0, size: 0x8, addend: 0x0, symName: __ZNSt12length_errorC2B8ue170006EPKc, symObjAddr: 0x2590, symBinAddr: 0x100006AAC, symSize: 0x4C }
  - { offsetInCU: 0x118E8, offset: 0x118E8, size: 0x8, addend: 0x0, symName: __ZNSt3__13maxB8ue170006ImNS_6__lessIvvEEEERKT_S5_S5_T0_, symObjAddr: 0x25DC, symBinAddr: 0x100006AF8, symSize: 0x54 }
  - { offsetInCU: 0x11928, offset: 0x11928, size: 0x8, addend: 0x0, symName: __ZNSt3__114__split_bufferINS_4pairIifEERNS_9allocatorIS2_EEEC2EmmS5_, symObjAddr: 0x2630, symBinAddr: 0x100006B4C, symSize: 0xD4 }
  - { offsetInCU: 0x11930, offset: 0x11930, size: 0x8, addend: 0x0, symName: __ZNSt3__117__compressed_pairIPNS_4pairIifEERNS_9allocatorIS2_EEEC1B8ue170006IDnS6_EEOT_OT0_, symObjAddr: 0x2704, symBinAddr: 0x100006C20, symSize: 0x3C }
  - { offsetInCU: 0x119BB, offset: 0x119BB, size: 0x8, addend: 0x0, symName: __ZNSt3__117__compressed_pairIPNS_4pairIifEERNS_9allocatorIS2_EEEC1B8ue170006IDnS6_EEOT_OT0_, symObjAddr: 0x2704, symBinAddr: 0x100006C20, symSize: 0x3C }
  - { offsetInCU: 0x119C3, offset: 0x119C3, size: 0x8, addend: 0x0, symName: __ZNSt3__119__allocate_at_leastB8ue170006INS_9allocatorINS_4pairIifEEEEEENS_19__allocation_resultINS_16allocator_traitsIT_E7pointerEEERS7_m, symObjAddr: 0x2740, symBinAddr: 0x100006C5C, symSize: 0x40 }
  - { offsetInCU: 0x11A2F, offset: 0x11A2F, size: 0x8, addend: 0x0, symName: __ZNSt3__114__split_bufferINS_4pairIifEERNS_9allocatorIS2_EEE7__allocB8ue170006Ev, symObjAddr: 0x2780, symBinAddr: 0x100006C9C, symSize: 0x28 }
  - { offsetInCU: 0x11A37, offset: 0x11A37, size: 0x8, addend: 0x0, symName: __ZNSt3__114__split_bufferINS_4pairIifEERNS_9allocatorIS2_EEE9__end_capB8ue170006Ev, symObjAddr: 0x27A8, symBinAddr: 0x100006CC4, symSize: 0x28 }
  - { offsetInCU: 0x11A61, offset: 0x11A61, size: 0x8, addend: 0x0, symName: __ZNSt3__114__split_bufferINS_4pairIifEERNS_9allocatorIS2_EEE9__end_capB8ue170006Ev, symObjAddr: 0x27A8, symBinAddr: 0x100006CC4, symSize: 0x28 }
  - { offsetInCU: 0x11A69, offset: 0x11A69, size: 0x8, addend: 0x0, symName: __ZNSt3__117__compressed_pairIPNS_4pairIifEERNS_9allocatorIS2_EEEC2B8ue170006IDnS6_EEOT_OT0_, symObjAddr: 0x27D0, symBinAddr: 0x100006CEC, symSize: 0x48 }
  - { offsetInCU: 0x11A93, offset: 0x11A93, size: 0x8, addend: 0x0, symName: __ZNSt3__117__compressed_pairIPNS_4pairIifEERNS_9allocatorIS2_EEEC2B8ue170006IDnS6_EEOT_OT0_, symObjAddr: 0x27D0, symBinAddr: 0x100006CEC, symSize: 0x48 }
  - { offsetInCU: 0x11A9B, offset: 0x11A9B, size: 0x8, addend: 0x0, symName: __ZNSt3__122__compressed_pair_elemIRNS_9allocatorINS_4pairIifEEEELi1ELb0EEC2B8ue170006IS5_vEEOT_, symObjAddr: 0x2818, symBinAddr: 0x100006D34, symSize: 0x20 }
  - { offsetInCU: 0x11B07, offset: 0x11B07, size: 0x8, addend: 0x0, symName: __ZNSt3__122__compressed_pair_elemIRNS_9allocatorINS_4pairIifEEEELi1ELb0EEC2B8ue170006IS5_vEEOT_, symObjAddr: 0x2818, symBinAddr: 0x100006D34, symSize: 0x20 }
  - { offsetInCU: 0x11B0F, offset: 0x11B0F, size: 0x8, addend: 0x0, symName: __ZNSt3__19allocatorINS_4pairIifEEE8allocateB8ue170006Em, symObjAddr: 0x2838, symBinAddr: 0x100006D54, symSize: 0x58 }
  - { offsetInCU: 0x11B5E, offset: 0x11B5E, size: 0x8, addend: 0x0, symName: __ZNSt3__19allocatorINS_4pairIifEEE8allocateB8ue170006Em, symObjAddr: 0x2838, symBinAddr: 0x100006D54, symSize: 0x58 }
  - { offsetInCU: 0x11B66, offset: 0x11B66, size: 0x8, addend: 0x0, symName: __ZSt28__throw_bad_array_new_lengthB8ue170006v, symObjAddr: 0x2890, symBinAddr: 0x100006DAC, symSize: 0x34 }
  - { offsetInCU: 0x11BA2, offset: 0x11BA2, size: 0x8, addend: 0x0, symName: __ZNSt3__117__compressed_pairIPNS_4pairIifEERNS_9allocatorIS2_EEE6secondB8ue170006Ev, symObjAddr: 0x2974, symBinAddr: 0x100006E90, symSize: 0x28 }
  - { offsetInCU: 0x11BAA, offset: 0x11BAA, size: 0x8, addend: 0x0, symName: __ZNSt3__122__compressed_pair_elemIRNS_9allocatorINS_4pairIifEEEELi1ELb0EE5__getB8ue170006Ev, symObjAddr: 0x299C, symBinAddr: 0x100006EB8, symSize: 0x18 }
  - { offsetInCU: 0x11BD4, offset: 0x11BD4, size: 0x8, addend: 0x0, symName: __ZNSt3__122__compressed_pair_elemIRNS_9allocatorINS_4pairIifEEEELi1ELb0EE5__getB8ue170006Ev, symObjAddr: 0x299C, symBinAddr: 0x100006EB8, symSize: 0x18 }
  - { offsetInCU: 0x11BDC, offset: 0x11BDC, size: 0x8, addend: 0x0, symName: __ZNSt3__117__compressed_pairIPNS_4pairIifEERNS_9allocatorIS2_EEE5firstB8ue170006Ev, symObjAddr: 0x29B4, symBinAddr: 0x100006ED0, symSize: 0x24 }
  - { offsetInCU: 0x11C07, offset: 0x11C07, size: 0x8, addend: 0x0, symName: __ZNSt3__117__compressed_pairIPNS_4pairIifEERNS_9allocatorIS2_EEE5firstB8ue170006Ev, symObjAddr: 0x29B4, symBinAddr: 0x100006ED0, symSize: 0x24 }
  - { offsetInCU: 0x11C0F, offset: 0x11C0F, size: 0x8, addend: 0x0, symName: __ZNSt3__142__uninitialized_allocator_move_if_noexceptB8ue170006INS_9allocatorINS_4pairIifEEEENS_16reverse_iteratorIPS3_EES7_S7_EET2_RT_T0_T1_S8_, symObjAddr: 0x29D8, symBinAddr: 0x100006EF4, symSize: 0x12C }
  - { offsetInCU: 0x11C39, offset: 0x11C39, size: 0x8, addend: 0x0, symName: __ZNSt3__116reverse_iteratorIPNS_4pairIifEEEC1B8ue170006ES3_, symObjAddr: 0x2B04, symBinAddr: 0x100007020, symSize: 0x34 }
  - { offsetInCU: 0x11C41, offset: 0x11C41, size: 0x8, addend: 0x0, symName: __ZNKSt3__116reverse_iteratorIPNS_4pairIifEEE4baseB8ue170006Ev, symObjAddr: 0x2B38, symBinAddr: 0x100007054, symSize: 0x18 }
  - { offsetInCU: 0x11C81, offset: 0x11C81, size: 0x8, addend: 0x0, symName: __ZNKSt3__116reverse_iteratorIPNS_4pairIifEEE4baseB8ue170006Ev, symObjAddr: 0x2B38, symBinAddr: 0x100007054, symSize: 0x18 }
  - { offsetInCU: 0x11C89, offset: 0x11C89, size: 0x8, addend: 0x0, symName: __ZNSt3__14swapB8ue170006IPNS_4pairIifEEEENS_9enable_ifIXaasr21is_move_constructibleIT_EE5valuesr18is_move_assignableIS5_EE5valueEvE4typeERS5_S8_, symObjAddr: 0x2B50, symBinAddr: 0x10000706C, symSize: 0x3C }
  - { offsetInCU: 0x11CB4, offset: 0x11CB4, size: 0x8, addend: 0x0, symName: __ZNKSt3__16vectorINS_4pairIifEENS_9allocatorIS2_EEE14__annotate_newB8ue170006Em, symObjAddr: 0x2B8C, symBinAddr: 0x1000070A8, symSize: 0xAC }
  - { offsetInCU: 0x11CBC, offset: 0x11CBC, size: 0x8, addend: 0x0, symName: __ZNSt3__122__make_exception_guardB8ue170006INS_29_AllocatorDestroyRangeReverseINS_9allocatorINS_4pairIifEEEENS_16reverse_iteratorIPS4_EEEEEENS_28__exception_guard_exceptionsIT_EESB_, symObjAddr: 0x2C38, symBinAddr: 0x100007154, symSize: 0x4C }
  - { offsetInCU: 0x11CF9, offset: 0x11CF9, size: 0x8, addend: 0x0, symName: __ZNSt3__129_AllocatorDestroyRangeReverseINS_9allocatorINS_4pairIifEEEENS_16reverse_iteratorIPS3_EEEC1B8ue170006ERS4_RS7_SA_, symObjAddr: 0x2C84, symBinAddr: 0x1000071A0, symSize: 0x44 }
  - { offsetInCU: 0x11D01, offset: 0x11D01, size: 0x8, addend: 0x0, symName: __ZNSt3__1neB8ue170006IPNS_4pairIifEES3_EEbRKNS_16reverse_iteratorIT_EERKNS4_IT0_EE, symObjAddr: 0x2CC8, symBinAddr: 0x1000071E4, symSize: 0x48 }
  - { offsetInCU: 0x11D68, offset: 0x11D68, size: 0x8, addend: 0x0, symName: __ZNKSt3__116reverse_iteratorIPNS_4pairIifEEEdeB8ue170006Ev, symObjAddr: 0x2D34, symBinAddr: 0x100007250, symSize: 0x28 }
  - { offsetInCU: 0x11D70, offset: 0x11D70, size: 0x8, addend: 0x0, symName: __ZNSt3__116reverse_iteratorIPNS_4pairIifEEEppB8ue170006Ev, symObjAddr: 0x2D5C, symBinAddr: 0x100007278, symSize: 0x20 }
  - { offsetInCU: 0x11DAD, offset: 0x11DAD, size: 0x8, addend: 0x0, symName: __ZNSt3__116reverse_iteratorIPNS_4pairIifEEEppB8ue170006Ev, symObjAddr: 0x2D5C, symBinAddr: 0x100007278, symSize: 0x20 }
  - { offsetInCU: 0x11DB5, offset: 0x11DB5, size: 0x8, addend: 0x0, symName: __ZNSt3__128__exception_guard_exceptionsINS_29_AllocatorDestroyRangeReverseINS_9allocatorINS_4pairIifEEEENS_16reverse_iteratorIPS4_EEEEE10__completeB8ue170006Ev, symObjAddr: 0x2D7C, symBinAddr: 0x100007298, symSize: 0x1C }
  - { offsetInCU: 0x11DE0, offset: 0x11DE0, size: 0x8, addend: 0x0, symName: __ZNSt3__128__exception_guard_exceptionsINS_29_AllocatorDestroyRangeReverseINS_9allocatorINS_4pairIifEEEENS_16reverse_iteratorIPS4_EEEEE10__completeB8ue170006Ev, symObjAddr: 0x2D7C, symBinAddr: 0x100007298, symSize: 0x1C }
  - { offsetInCU: 0x11DE8, offset: 0x11DE8, size: 0x8, addend: 0x0, symName: __ZNSt3__128__exception_guard_exceptionsINS_29_AllocatorDestroyRangeReverseINS_9allocatorINS_4pairIifEEEENS_16reverse_iteratorIPS4_EEEEED1B8ue170006Ev, symObjAddr: 0x2D98, symBinAddr: 0x1000072B4, symSize: 0x2C }
  - { offsetInCU: 0x11E13, offset: 0x11E13, size: 0x8, addend: 0x0, symName: __ZNSt3__128__exception_guard_exceptionsINS_29_AllocatorDestroyRangeReverseINS_9allocatorINS_4pairIifEEEENS_16reverse_iteratorIPS4_EEEEED1B8ue170006Ev, symObjAddr: 0x2D98, symBinAddr: 0x1000072B4, symSize: 0x2C }
  - { offsetInCU: 0x11E1B, offset: 0x11E1B, size: 0x8, addend: 0x0, symName: __ZNSt3__128__exception_guard_exceptionsINS_29_AllocatorDestroyRangeReverseINS_9allocatorINS_4pairIifEEEENS_16reverse_iteratorIPS4_EEEEEC1B8ue170006ES9_, symObjAddr: 0x2DC4, symBinAddr: 0x1000072E0, symSize: 0x34 }
  - { offsetInCU: 0x11E49, offset: 0x11E49, size: 0x8, addend: 0x0, symName: __ZNSt3__128__exception_guard_exceptionsINS_29_AllocatorDestroyRangeReverseINS_9allocatorINS_4pairIifEEEENS_16reverse_iteratorIPS4_EEEEEC1B8ue170006ES9_, symObjAddr: 0x2DC4, symBinAddr: 0x1000072E0, symSize: 0x34 }
  - { offsetInCU: 0x11E51, offset: 0x11E51, size: 0x8, addend: 0x0, symName: __ZNSt3__128__exception_guard_exceptionsINS_29_AllocatorDestroyRangeReverseINS_9allocatorINS_4pairIifEEEENS_16reverse_iteratorIPS4_EEEEEC2B8ue170006ES9_, symObjAddr: 0x2DF8, symBinAddr: 0x100007314, symSize: 0x30 }
  - { offsetInCU: 0x11E92, offset: 0x11E92, size: 0x8, addend: 0x0, symName: __ZNSt3__128__exception_guard_exceptionsINS_29_AllocatorDestroyRangeReverseINS_9allocatorINS_4pairIifEEEENS_16reverse_iteratorIPS4_EEEEEC2B8ue170006ES9_, symObjAddr: 0x2DF8, symBinAddr: 0x100007314, symSize: 0x30 }
  - { offsetInCU: 0x11E9A, offset: 0x11E9A, size: 0x8, addend: 0x0, symName: __ZNSt3__129_AllocatorDestroyRangeReverseINS_9allocatorINS_4pairIifEEEENS_16reverse_iteratorIPS3_EEEC2B8ue170006ERS4_RS7_SA_, symObjAddr: 0x2E28, symBinAddr: 0x100007344, symSize: 0x38 }
  - { offsetInCU: 0x11EDC, offset: 0x11EDC, size: 0x8, addend: 0x0, symName: __ZNSt3__129_AllocatorDestroyRangeReverseINS_9allocatorINS_4pairIifEEEENS_16reverse_iteratorIPS3_EEEC2B8ue170006ERS4_RS7_SA_, symObjAddr: 0x2E28, symBinAddr: 0x100007344, symSize: 0x38 }
  - { offsetInCU: 0x11EE4, offset: 0x11EE4, size: 0x8, addend: 0x0, symName: __ZNSt3__119__to_address_helperINS_16reverse_iteratorIPNS_4pairIifEEEEvE6__callB8ue170006ERKS5_, symObjAddr: 0x2E60, symBinAddr: 0x10000737C, symSize: 0x38 }
  - { offsetInCU: 0x11F55, offset: 0x11F55, size: 0x8, addend: 0x0, symName: __ZNSt3__119__to_address_helperINS_16reverse_iteratorIPNS_4pairIifEEEEvE6__callB8ue170006ERKS5_, symObjAddr: 0x2E60, symBinAddr: 0x10000737C, symSize: 0x38 }
  - { offsetInCU: 0x11F5D, offset: 0x11F5D, size: 0x8, addend: 0x0, symName: __ZNKSt3__116reverse_iteratorIPNS_4pairIifEEEptB8ue170006Ev, symObjAddr: 0x2E98, symBinAddr: 0x1000073B4, symSize: 0x24 }
  - { offsetInCU: 0x11F84, offset: 0x11F84, size: 0x8, addend: 0x0, symName: __ZNKSt3__116reverse_iteratorIPNS_4pairIifEEEptB8ue170006Ev, symObjAddr: 0x2E98, symBinAddr: 0x1000073B4, symSize: 0x24 }
  - { offsetInCU: 0x11F8C, offset: 0x11F8C, size: 0x8, addend: 0x0, symName: __ZNSt3__128__exception_guard_exceptionsINS_29_AllocatorDestroyRangeReverseINS_9allocatorINS_4pairIifEEEENS_16reverse_iteratorIPS4_EEEEED2B8ue170006Ev, symObjAddr: 0x2EBC, symBinAddr: 0x1000073D8, symSize: 0x50 }
  - { offsetInCU: 0x11FB6, offset: 0x11FB6, size: 0x8, addend: 0x0, symName: __ZNSt3__128__exception_guard_exceptionsINS_29_AllocatorDestroyRangeReverseINS_9allocatorINS_4pairIifEEEENS_16reverse_iteratorIPS4_EEEEED2B8ue170006Ev, symObjAddr: 0x2EBC, symBinAddr: 0x1000073D8, symSize: 0x50 }
  - { offsetInCU: 0x11FBE, offset: 0x11FBE, size: 0x8, addend: 0x0, symName: __ZNKSt3__129_AllocatorDestroyRangeReverseINS_9allocatorINS_4pairIifEEEENS_16reverse_iteratorIPS3_EEEclB8ue170006Ev, symObjAddr: 0x2F0C, symBinAddr: 0x100007428, symSize: 0xB4 }
  - { offsetInCU: 0x11FEC, offset: 0x11FEC, size: 0x8, addend: 0x0, symName: __ZNKSt3__129_AllocatorDestroyRangeReverseINS_9allocatorINS_4pairIifEEEENS_16reverse_iteratorIPS3_EEEclB8ue170006Ev, symObjAddr: 0x2F0C, symBinAddr: 0x100007428, symSize: 0xB4 }
  - { offsetInCU: 0x11FF4, offset: 0x11FF4, size: 0x8, addend: 0x0, symName: __ZNSt3__119__allocator_destroyB8ue170006INS_9allocatorINS_4pairIifEEEENS_16reverse_iteratorINS5_IPS3_EEEES8_EEvRT_T0_T1_, symObjAddr: 0x2FC0, symBinAddr: 0x1000074DC, symSize: 0x70 }
  - { offsetInCU: 0x1201F, offset: 0x1201F, size: 0x8, addend: 0x0, symName: __ZNSt3__116reverse_iteratorINS0_IPNS_4pairIifEEEEEC1B8ue170006ES4_, symObjAddr: 0x3030, symBinAddr: 0x10000754C, symSize: 0x3C }
  - { offsetInCU: 0x12027, offset: 0x12027, size: 0x8, addend: 0x0, symName: __ZNSt3__1neB8ue170006INS_16reverse_iteratorIPNS_4pairIifEEEES5_EEbRKNS1_IT_EERKNS1_IT0_EE, symObjAddr: 0x306C, symBinAddr: 0x100007588, symSize: 0x60 }
  - { offsetInCU: 0x12067, offset: 0x12067, size: 0x8, addend: 0x0, symName: __ZNSt3__116reverse_iteratorINS0_IPNS_4pairIifEEEEEppB8ue170006Ev, symObjAddr: 0x30F0, symBinAddr: 0x10000760C, symSize: 0x30 }
  - { offsetInCU: 0x1206F, offset: 0x1206F, size: 0x8, addend: 0x0, symName: __ZNKSt3__116reverse_iteratorINS0_IPNS_4pairIifEEEEE4baseB8ue170006Ev, symObjAddr: 0x3120, symBinAddr: 0x10000763C, symSize: 0x24 }
  - { offsetInCU: 0x12099, offset: 0x12099, size: 0x8, addend: 0x0, symName: __ZNKSt3__116reverse_iteratorINS0_IPNS_4pairIifEEEEE4baseB8ue170006Ev, symObjAddr: 0x3120, symBinAddr: 0x10000763C, symSize: 0x24 }
  - { offsetInCU: 0x120A1, offset: 0x120A1, size: 0x8, addend: 0x0, symName: __ZNSt3__119__to_address_helperINS_16reverse_iteratorINS1_IPNS_4pairIifEEEEEEvE6__callB8ue170006ERKS6_, symObjAddr: 0x3144, symBinAddr: 0x100007660, symSize: 0x38 }
  - { offsetInCU: 0x120D5, offset: 0x120D5, size: 0x8, addend: 0x0, symName: __ZNSt3__119__to_address_helperINS_16reverse_iteratorINS1_IPNS_4pairIifEEEEEEvE6__callB8ue170006ERKS6_, symObjAddr: 0x3144, symBinAddr: 0x100007660, symSize: 0x38 }
  - { offsetInCU: 0x120DD, offset: 0x120DD, size: 0x8, addend: 0x0, symName: __ZNKSt3__116reverse_iteratorINS0_IPNS_4pairIifEEEEEptB8ue170006Ev, symObjAddr: 0x317C, symBinAddr: 0x100007698, symSize: 0x24 }
  - { offsetInCU: 0x12104, offset: 0x12104, size: 0x8, addend: 0x0, symName: __ZNKSt3__116reverse_iteratorINS0_IPNS_4pairIifEEEEEptB8ue170006Ev, symObjAddr: 0x317C, symBinAddr: 0x100007698, symSize: 0x24 }
  - { offsetInCU: 0x1210C, offset: 0x1210C, size: 0x8, addend: 0x0, symName: __ZNKSt3__116reverse_iteratorINS0_IPNS_4pairIifEEEEEdeB8ue170006Ev, symObjAddr: 0x31A0, symBinAddr: 0x1000076BC, symSize: 0x34 }
  - { offsetInCU: 0x12136, offset: 0x12136, size: 0x8, addend: 0x0, symName: __ZNKSt3__116reverse_iteratorINS0_IPNS_4pairIifEEEEEdeB8ue170006Ev, symObjAddr: 0x31A0, symBinAddr: 0x1000076BC, symSize: 0x34 }
  - { offsetInCU: 0x1213E, offset: 0x1213E, size: 0x8, addend: 0x0, symName: __ZNSt3__116reverse_iteratorIPNS_4pairIifEEEmmB8ue170006Ev, symObjAddr: 0x31D4, symBinAddr: 0x1000076F0, symSize: 0x20 }
  - { offsetInCU: 0x1217A, offset: 0x1217A, size: 0x8, addend: 0x0, symName: __ZNSt3__116reverse_iteratorIPNS_4pairIifEEEmmB8ue170006Ev, symObjAddr: 0x31D4, symBinAddr: 0x1000076F0, symSize: 0x20 }
  - { offsetInCU: 0x12182, offset: 0x12182, size: 0x8, addend: 0x0, symName: __ZNSt3__116reverse_iteratorINS0_IPNS_4pairIifEEEEEC2B8ue170006ES4_, symObjAddr: 0x31F4, symBinAddr: 0x100007710, symSize: 0x2C }
  - { offsetInCU: 0x121AD, offset: 0x121AD, size: 0x8, addend: 0x0, symName: __ZNSt3__116reverse_iteratorINS0_IPNS_4pairIifEEEEEC2B8ue170006ES4_, symObjAddr: 0x31F4, symBinAddr: 0x100007710, symSize: 0x2C }
  - { offsetInCU: 0x121B5, offset: 0x121B5, size: 0x8, addend: 0x0, symName: __ZNSt3__116reverse_iteratorIPNS_4pairIifEEEC2B8ue170006ES3_, symObjAddr: 0x3220, symBinAddr: 0x10000773C, symSize: 0x28 }
  - { offsetInCU: 0x121F6, offset: 0x121F6, size: 0x8, addend: 0x0, symName: __ZNSt3__116reverse_iteratorIPNS_4pairIifEEEC2B8ue170006ES3_, symObjAddr: 0x3220, symBinAddr: 0x10000773C, symSize: 0x28 }
  - { offsetInCU: 0x121FE, offset: 0x121FE, size: 0x8, addend: 0x0, symName: __ZNSt3__114__split_bufferINS_4pairIifEERNS_9allocatorIS2_EEED2Ev, symObjAddr: 0x3248, symBinAddr: 0x100007764, symSize: 0x8C }
  - { offsetInCU: 0x1223F, offset: 0x1223F, size: 0x8, addend: 0x0, symName: __ZNSt3__114__split_bufferINS_4pairIifEERNS_9allocatorIS2_EEED2Ev, symObjAddr: 0x3248, symBinAddr: 0x100007764, symSize: 0x8C }
  - { offsetInCU: 0x12247, offset: 0x12247, size: 0x8, addend: 0x0, symName: __ZNSt3__114__split_bufferINS_4pairIifEERNS_9allocatorIS2_EEE5clearB8ue170006Ev, symObjAddr: 0x32D4, symBinAddr: 0x1000077F0, symSize: 0x28 }
  - { offsetInCU: 0x12277, offset: 0x12277, size: 0x8, addend: 0x0, symName: __ZNSt3__114__split_bufferINS_4pairIifEERNS_9allocatorIS2_EEE5clearB8ue170006Ev, symObjAddr: 0x32D4, symBinAddr: 0x1000077F0, symSize: 0x28 }
  - { offsetInCU: 0x1227F, offset: 0x1227F, size: 0x8, addend: 0x0, symName: __ZNKSt3__114__split_bufferINS_4pairIifEERNS_9allocatorIS2_EEE8capacityB8ue170006Ev, symObjAddr: 0x32FC, symBinAddr: 0x100007818, symSize: 0x40 }
  - { offsetInCU: 0x122A9, offset: 0x122A9, size: 0x8, addend: 0x0, symName: __ZNKSt3__114__split_bufferINS_4pairIifEERNS_9allocatorIS2_EEE8capacityB8ue170006Ev, symObjAddr: 0x32FC, symBinAddr: 0x100007818, symSize: 0x40 }
  - { offsetInCU: 0x122B1, offset: 0x122B1, size: 0x8, addend: 0x0, symName: __ZNSt3__114__split_bufferINS_4pairIifEERNS_9allocatorIS2_EEE17__destruct_at_endB8ue170006EPS2_, symObjAddr: 0x333C, symBinAddr: 0x100007858, symSize: 0x2C }
  - { offsetInCU: 0x122DB, offset: 0x122DB, size: 0x8, addend: 0x0, symName: __ZNSt3__114__split_bufferINS_4pairIifEERNS_9allocatorIS2_EEE17__destruct_at_endB8ue170006EPS2_, symObjAddr: 0x333C, symBinAddr: 0x100007858, symSize: 0x2C }
  - { offsetInCU: 0x122E3, offset: 0x122E3, size: 0x8, addend: 0x0, symName: __ZNSt3__114__split_bufferINS_4pairIifEERNS_9allocatorIS2_EEE17__destruct_at_endB8ue170006EPS2_NS_17integral_constantIbLb0EEE, symObjAddr: 0x3368, symBinAddr: 0x100007884, symSize: 0x80 }
  - { offsetInCU: 0x1231E, offset: 0x1231E, size: 0x8, addend: 0x0, symName: __ZNSt3__114__split_bufferINS_4pairIifEERNS_9allocatorIS2_EEE17__destruct_at_endB8ue170006EPS2_NS_17integral_constantIbLb0EEE, symObjAddr: 0x3368, symBinAddr: 0x100007884, symSize: 0x80 }
  - { offsetInCU: 0x12326, offset: 0x12326, size: 0x8, addend: 0x0, symName: __ZNKSt3__114__split_bufferINS_4pairIifEERNS_9allocatorIS2_EEE9__end_capB8ue170006Ev, symObjAddr: 0x33E8, symBinAddr: 0x100007904, symSize: 0x28 }
  - { offsetInCU: 0x12373, offset: 0x12373, size: 0x8, addend: 0x0, symName: __ZNKSt3__114__split_bufferINS_4pairIifEERNS_9allocatorIS2_EEE9__end_capB8ue170006Ev, symObjAddr: 0x33E8, symBinAddr: 0x100007904, symSize: 0x28 }
  - { offsetInCU: 0x1237B, offset: 0x1237B, size: 0x8, addend: 0x0, symName: __ZNKSt3__117__compressed_pairIPNS_4pairIifEERNS_9allocatorIS2_EEE5firstB8ue170006Ev, symObjAddr: 0x3410, symBinAddr: 0x10000792C, symSize: 0x24 }
  - { offsetInCU: 0x123A5, offset: 0x123A5, size: 0x8, addend: 0x0, symName: __ZNKSt3__117__compressed_pairIPNS_4pairIifEERNS_9allocatorIS2_EEE5firstB8ue170006Ev, symObjAddr: 0x3410, symBinAddr: 0x10000792C, symSize: 0x24 }
...
