---
triple:          'arm64-apple-darwin'
binary-path:     '/Users/tannu/Repository/Algorithms/Greedy/Kruskal_algorithm/main'
relocations:
  - { offsetInCU: 0x4731, offset: 0x4731, size: 0x8, addend: 0x0, symName: __ZNSt3__111__introsortINS_17_ClassicAlgPolicyERPFb4edgeS2_EPS2_Lb0EEEvT1_S7_T0_NS_15iterator_traitsIS7_E15difference_typeEb, symObjAddr: 0x878, symBinAddr: 0x100003538, symSize: 0x5C4 }
  - { offsetInCU: 0x48F1, offset: 0x48F1, size: 0x8, addend: 0x0, symName: __ZNSt3__126__insertion_sort_unguardedB8ue170006INS_17_ClassicAlgPolicyERPFb4edgeS2_EPS2_EEvT1_S7_T0_, symObjAddr: 0x11B0, symBinAddr: 0x100003E70, symSize: 0x210 }
  - { offsetInCU: 0x48F9, offset: 0x48F9, size: 0x8, addend: 0x0, symName: __ZNSt3__114__partial_sortB8ue170006INS_17_ClassicAlgPolicyERPFb4edgeS2_EPS2_S6_EET1_S7_S7_T2_RT0_, symObjAddr: 0x13C0, symBinAddr: 0x100004080, symSize: 0x94 }
  - { offsetInCU: 0x4A2C, offset: 0x4A2C, size: 0x8, addend: 0x0, symName: __ZNSt3__111__sift_downB8ue170006INS_17_ClassicAlgPolicyERPFb4edgeS2_EPS2_EEvT1_OT0_NS_15iterator_traitsIS7_E15difference_typeES7_, symObjAddr: 0x30CC, symBinAddr: 0x100005D8C, symSize: 0x3B4 }
  - { offsetInCU: 0x4A34, offset: 0x4A34, size: 0x8, addend: 0x0, symName: __ZNSt3__111__sort_heapB8ue170006INS_17_ClassicAlgPolicyERPFb4edgeS2_EPS2_EEvT1_S7_OT0_, symObjAddr: 0x3480, symBinAddr: 0x100006140, symSize: 0xA8 }
  - { offsetInCU: 0x4B15, offset: 0x4B15, size: 0x8, addend: 0x0, symName: __ZNSt3__117__floyd_sift_downB8ue170006INS_17_ClassicAlgPolicyERPFb4edgeS2_EPS2_EET1_S7_OT0_NS_15iterator_traitsIS7_E15difference_typeE, symObjAddr: 0x363C, symBinAddr: 0x1000062FC, symSize: 0x19C }
  - { offsetInCU: 0x4B1D, offset: 0x4B1D, size: 0x8, addend: 0x0, symName: __ZNSt3__19__sift_upB8ue170006INS_17_ClassicAlgPolicyERPFb4edgeS2_EPS2_EEvT1_S7_OT0_NS_15iterator_traitsIS7_E15difference_typeE, symObjAddr: 0x37D8, symBinAddr: 0x100006498, symSize: 0x21C }
  - { offsetInCU: 0x4BDF, offset: 0x4BDF, size: 0x8, addend: 0x0, symName: __ZNSt3__131__partition_with_equals_on_leftB8ue170006INS_17_ClassicAlgPolicyEP4edgeRPFbS2_S2_EEET0_S7_S7_T1_, symObjAddr: 0x17B4, symBinAddr: 0x100004474, symSize: 0x444 }
  - { offsetInCU: 0x4BE7, offset: 0x4BE7, size: 0x8, addend: 0x0, symName: __ZNSt3__118__bitset_partitionB8ue170006INS_17_ClassicAlgPolicyEP4edgeRPFbS2_S2_EEENS_4pairIT0_bEES8_S8_T1_, symObjAddr: 0x1BF8, symBinAddr: 0x1000048B8, symSize: 0x4CC }
  - { offsetInCU: 0x4CD9, offset: 0x4CD9, size: 0x8, addend: 0x0, symName: __ZNSt3__118__bitset_partitionB8ue170006INS_17_ClassicAlgPolicyEP4edgeRPFbS2_S2_EEENS_4pairIT0_bEES8_S8_T1_, symObjAddr: 0x1BF8, symBinAddr: 0x1000048B8, symSize: 0x4CC }
  - { offsetInCU: 0x4CE1, offset: 0x4CE1, size: 0x8, addend: 0x0, symName: __ZNSt3__132__partition_with_equals_on_rightB8ue170006INS_17_ClassicAlgPolicyEP4edgeRPFbS2_S2_EEENS_4pairIT0_bEES8_S8_T1_, symObjAddr: 0x20C4, symBinAddr: 0x100004D84, symSize: 0x410 }
  - { offsetInCU: 0x4E23, offset: 0x4E23, size: 0x8, addend: 0x0, symName: __ZNSt3__124__swap_bitmap_pos_withinB8ue170006INS_17_ClassicAlgPolicyEP4edgeEEvRT0_S5_RyS6_, symObjAddr: 0x4124, symBinAddr: 0x100006DE4, symSize: 0x1E8 }
  - { offsetInCU: 0x4E2B, offset: 0x4E2B, size: 0x8, addend: 0x0, symName: __ZNSt3__19make_pairB8ue170006IRP4edgeRbEENS_4pairINS_18__unwrap_ref_decayIT_E4typeENS6_IT0_E4typeEEEOS7_OSA_, symObjAddr: 0x430C, symBinAddr: 0x100006FCC, symSize: 0x38 }
  - { offsetInCU: 0x4F29, offset: 0x4F29, size: 0x8, addend: 0x0, symName: __ZNSt3__132__partition_with_equals_on_rightB8ue170006INS_17_ClassicAlgPolicyEP4edgeRPFbS2_S2_EEENS_4pairIT0_bEES8_S8_T1_, symObjAddr: 0x20C4, symBinAddr: 0x100004D84, symSize: 0x410 }
  - { offsetInCU: 0x4F31, offset: 0x4F31, size: 0x8, addend: 0x0, symName: __ZNSt3__127__insertion_sort_incompleteB8ue170006INS_17_ClassicAlgPolicyERPFb4edgeS2_EPS2_EEbT1_S7_T0_, symObjAddr: 0x24D4, symBinAddr: 0x100005194, symSize: 0x458 }
  - { offsetInCU: 0x5037, offset: 0x5037, size: 0x8, addend: 0x0, symName: __ZNSt3__127__insertion_sort_incompleteB8ue170006INS_17_ClassicAlgPolicyERPFb4edgeS2_EPS2_EEbT1_S7_T0_, symObjAddr: 0x24D4, symBinAddr: 0x100005194, symSize: 0x458 }
  - { offsetInCU: 0x517D, offset: 0x517D, size: 0x8, addend: 0x0, symName: __ZNSt3__124__put_character_sequenceB8ue170006IcNS_11char_traitsIcEEEERNS_13basic_ostreamIT_T0_EES7_PKS4_m, symObjAddr: 0x448C, symBinAddr: 0x10000714C, symSize: 0x1EC }
  - { offsetInCU: 0x5185, offset: 0x5185, size: 0x8, addend: 0x0, symName: __ZNSt3__111char_traitsIcE6lengthB8ue170006EPKc, symObjAddr: 0x4678, symBinAddr: 0x100007338, symSize: 0x34 }
  - { offsetInCU: 0x784D, offset: 0x784D, size: 0x8, addend: 0x0, symName: __ZNSt3__14sortB8ue170006IP4edgePFbS1_S1_EEEvT_S5_T0_, symObjAddr: 0x494, symBinAddr: 0x100003154, symSize: 0x38 }
  - { offsetInCU: 0x7855, offset: 0x7855, size: 0x8, addend: 0x0, symName: __ZNSt3__1lsB8ue170006INS_11char_traitsIcEEEERNS_13basic_ostreamIcT_EES6_PKc, symObjAddr: 0x4CC, symBinAddr: 0x10000318C, symSize: 0x48 }
  - { offsetInCU: 0x78C0, offset: 0x78C0, size: 0x8, addend: 0x0, symName: __ZNSt3__1lsB8ue170006INS_11char_traitsIcEEEERNS_13basic_ostreamIcT_EES6_PKc, symObjAddr: 0x4CC, symBinAddr: 0x10000318C, symSize: 0x48 }
  - { offsetInCU: 0x78C8, offset: 0x78C8, size: 0x8, addend: 0x0, symName: __ZNSt3__113basic_ostreamIcNS_11char_traitsIcEEElsB8ue170006EPFRS3_S4_E, symObjAddr: 0x514, symBinAddr: 0x1000031D4, symSize: 0x2C }
  - { offsetInCU: 0x791B, offset: 0x791B, size: 0x8, addend: 0x0, symName: __ZNSt3__14endlB8ue170006IcNS_11char_traitsIcEEEERNS_13basic_ostreamIT_T0_EES7_, symObjAddr: 0x540, symBinAddr: 0x100003200, symSize: 0x58 }
  - { offsetInCU: 0x7923, offset: 0x7923, size: 0x8, addend: 0x0, symName: _main, symObjAddr: 0x598, symBinAddr: 0x100003258, symSize: 0x160 }
  - { offsetInCU: 0x7970, offset: 0x7970, size: 0x8, addend: 0x0, symName: __ZNSt3__111__sort_implB8ue170006INS_17_ClassicAlgPolicyEP4edgePFbS2_S2_EEEvT0_S6_RT1_, symObjAddr: 0x6F8, symBinAddr: 0x1000033B8, symSize: 0x78 }
  - { offsetInCU: 0x7978, offset: 0x7978, size: 0x8, addend: 0x0, symName: __ZNSt3__123__debug_randomize_rangeB8ue170006INS_17_ClassicAlgPolicyEP4edgeS3_EEvT0_T1_, symObjAddr: 0x770, symBinAddr: 0x100003430, symSize: 0x14 }
  - { offsetInCU: 0x79F0, offset: 0x79F0, size: 0x8, addend: 0x0, symName: __ZNSt3__123__debug_randomize_rangeB8ue170006INS_17_ClassicAlgPolicyEP4edgeS3_EEvT0_T1_, symObjAddr: 0x770, symBinAddr: 0x100003430, symSize: 0x14 }
  - { offsetInCU: 0x79F8, offset: 0x79F8, size: 0x8, addend: 0x0, symName: __ZNSt3__115__sort_dispatchB8ue170006INS_17_ClassicAlgPolicyEP4edgePFbS2_S2_EEEvT0_S6_RT1_, symObjAddr: 0x784, symBinAddr: 0x100003444, symSize: 0x64 }
  - { offsetInCU: 0x7A5B, offset: 0x7A5B, size: 0x8, addend: 0x0, symName: __ZNSt3__115__sort_dispatchB8ue170006INS_17_ClassicAlgPolicyEP4edgePFbS2_S2_EEEvT0_S6_RT1_, symObjAddr: 0x784, symBinAddr: 0x100003444, symSize: 0x64 }
  - { offsetInCU: 0x7A63, offset: 0x7A63, size: 0x8, addend: 0x0, symName: __ZNSt3__113__unwrap_iterB8ue170006IP4edgeNS_18__unwrap_iter_implIS2_Lb1EEELi0EEEDTclsrT0_8__unwrapclsr3stdE7declvalIT_EEEES6_, symObjAddr: 0x7E8, symBinAddr: 0x1000034A8, symSize: 0x24 }
  - { offsetInCU: 0x7AFE, offset: 0x7AFE, size: 0x8, addend: 0x0, symName: __ZNSt3__113__unwrap_iterB8ue170006IP4edgeNS_18__unwrap_iter_implIS2_Lb1EEELi0EEEDTclsrT0_8__unwrapclsr3stdE7declvalIT_EEEES6_, symObjAddr: 0x7E8, symBinAddr: 0x1000034A8, symSize: 0x24 }
  - { offsetInCU: 0x7B06, offset: 0x7B06, size: 0x8, addend: 0x0, symName: __ZNSt3__135__check_strict_weak_ordering_sortedB8ue170006IP4edgePFbS1_S1_EEEvT_S5_RT0_, symObjAddr: 0x80C, symBinAddr: 0x1000034CC, symSize: 0x18 }
  - { offsetInCU: 0x7B5B, offset: 0x7B5B, size: 0x8, addend: 0x0, symName: __ZNSt3__135__check_strict_weak_ordering_sortedB8ue170006IP4edgePFbS1_S1_EEEvT_S5_RT0_, symObjAddr: 0x80C, symBinAddr: 0x1000034CC, symSize: 0x18 }
  - { offsetInCU: 0x7B63, offset: 0x7B63, size: 0x8, addend: 0x0, symName: __ZNSt3__17__log2iB8ue170006IlEET_S1_, symObjAddr: 0x824, symBinAddr: 0x1000034E4, symSize: 0x54 }
  - { offsetInCU: 0x7BCB, offset: 0x7BCB, size: 0x8, addend: 0x0, symName: __ZNSt3__17__log2iB8ue170006IlEET_S1_, symObjAddr: 0x824, symBinAddr: 0x1000034E4, symSize: 0x54 }
  - { offsetInCU: 0x7BD3, offset: 0x7BD3, size: 0x8, addend: 0x0, symName: __ZNSt3__111__introsortINS_17_ClassicAlgPolicyERPFb4edgeS2_EPS2_Lb0EEEvT1_S7_T0_NS_15iterator_traitsIS7_E15difference_typeEb, symObjAddr: 0x878, symBinAddr: 0x100003538, symSize: 0x5C4 }
  - { offsetInCU: 0x7C13, offset: 0x7C13, size: 0x8, addend: 0x0, symName: __ZNSt3__112__libcpp_clzB8ue170006Em, symObjAddr: 0xE54, symBinAddr: 0x100003B14, symSize: 0x1C }
  - { offsetInCU: 0x7C1B, offset: 0x7C1B, size: 0x8, addend: 0x0, symName: __ZNSt3__18_IterOpsINS_17_ClassicAlgPolicyEE9iter_swapB8ue170006IRP4edgeS6_EEvOT_OT0_, symObjAddr: 0xE70, symBinAddr: 0x100003B30, symSize: 0x34 }
  - { offsetInCU: 0x7D97, offset: 0x7D97, size: 0x8, addend: 0x0, symName: __ZNSt3__124__sort3_maybe_branchlessB8ue170006INS_17_ClassicAlgPolicyERPFb4edgeS2_EPS2_EENS_9enable_ifIXntsr21__use_branchless_sortIT0_T1_EE5valueEvE4typeES9_S9_S9_S8_, symObjAddr: 0xEA4, symBinAddr: 0x100003B64, symSize: 0x3C }
  - { offsetInCU: 0x7D9F, offset: 0x7D9F, size: 0x8, addend: 0x0, symName: __ZNSt3__124__sort4_maybe_branchlessB8ue170006INS_17_ClassicAlgPolicyERPFb4edgeS2_EPS2_EENS_9enable_ifIXntsr21__use_branchless_sortIT0_T1_EE5valueEvE4typeES9_S9_S9_S9_S8_, symObjAddr: 0xEE0, symBinAddr: 0x100003BA0, symSize: 0x44 }
  - { offsetInCU: 0x7E2D, offset: 0x7E2D, size: 0x8, addend: 0x0, symName: __ZNSt3__124__sort4_maybe_branchlessB8ue170006INS_17_ClassicAlgPolicyERPFb4edgeS2_EPS2_EENS_9enable_ifIXntsr21__use_branchless_sortIT0_T1_EE5valueEvE4typeES9_S9_S9_S9_S8_, symObjAddr: 0xEE0, symBinAddr: 0x100003BA0, symSize: 0x44 }
  - { offsetInCU: 0x7E35, offset: 0x7E35, size: 0x8, addend: 0x0, symName: __ZNSt3__124__sort5_maybe_branchlessB8ue170006INS_17_ClassicAlgPolicyERPFb4edgeS2_EPS2_EENS_9enable_ifIXntsr21__use_branchless_sortIT0_T1_EE5valueEvE4typeES9_S9_S9_S9_S9_S8_, symObjAddr: 0xF24, symBinAddr: 0x100003BE4, symSize: 0x4C }
  - { offsetInCU: 0x7ED5, offset: 0x7ED5, size: 0x8, addend: 0x0, symName: __ZNSt3__124__sort5_maybe_branchlessB8ue170006INS_17_ClassicAlgPolicyERPFb4edgeS2_EPS2_EENS_9enable_ifIXntsr21__use_branchless_sortIT0_T1_EE5valueEvE4typeES9_S9_S9_S9_S9_S8_, symObjAddr: 0xF24, symBinAddr: 0x100003BE4, symSize: 0x4C }
  - { offsetInCU: 0x7EDD, offset: 0x7EDD, size: 0x8, addend: 0x0, symName: __ZNSt3__116__insertion_sortB8ue170006INS_17_ClassicAlgPolicyERPFb4edgeS2_EPS2_EEvT1_S7_T0_, symObjAddr: 0xF70, symBinAddr: 0x100003C30, symSize: 0x240 }
  - { offsetInCU: 0x7F8F, offset: 0x7F8F, size: 0x8, addend: 0x0, symName: __ZNSt3__116__insertion_sortB8ue170006INS_17_ClassicAlgPolicyERPFb4edgeS2_EPS2_EEvT1_S7_T0_, symObjAddr: 0xF70, symBinAddr: 0x100003C30, symSize: 0x240 }
  - { offsetInCU: 0x7F97, offset: 0x7F97, size: 0x8, addend: 0x0, symName: __ZNSt3__126__insertion_sort_unguardedB8ue170006INS_17_ClassicAlgPolicyERPFb4edgeS2_EPS2_EEvT1_S7_T0_, symObjAddr: 0x11B0, symBinAddr: 0x100003E70, symSize: 0x210 }
  - { offsetInCU: 0x8090, offset: 0x8090, size: 0x8, addend: 0x0, symName: __ZNSt3__114__partial_sortB8ue170006INS_17_ClassicAlgPolicyERPFb4edgeS2_EPS2_S6_EET1_S7_S7_T2_RT0_, symObjAddr: 0x13C0, symBinAddr: 0x100004080, symSize: 0x94 }
  - { offsetInCU: 0x8098, offset: 0x8098, size: 0x8, addend: 0x0, symName: __ZNSt3__17__sort3B8ue170006INS_17_ClassicAlgPolicyERPFb4edgeS2_EPS2_EEjT1_S7_S7_T0_, symObjAddr: 0x1454, symBinAddr: 0x100004114, symSize: 0x32C }
  - { offsetInCU: 0x8145, offset: 0x8145, size: 0x8, addend: 0x0, symName: __ZNSt3__17__sort3B8ue170006INS_17_ClassicAlgPolicyERPFb4edgeS2_EPS2_EEjT1_S7_S7_T0_, symObjAddr: 0x1454, symBinAddr: 0x100004114, symSize: 0x32C }
  - { offsetInCU: 0x814D, offset: 0x814D, size: 0x8, addend: 0x0, symName: __ZNSt3__18_IterOpsINS_17_ClassicAlgPolicyEE9iter_swapB8ue170006IRP4edgeS5_EEvOT_OT0_, symObjAddr: 0x1780, symBinAddr: 0x100004440, symSize: 0x34 }
  - { offsetInCU: 0x81F2, offset: 0x81F2, size: 0x8, addend: 0x0, symName: __ZNSt3__19iter_swapB8ue170006IP4edgeS2_EEvT_T0_, symObjAddr: 0x2944, symBinAddr: 0x100005604, symSize: 0x2C }
  - { offsetInCU: 0x81FA, offset: 0x81FA, size: 0x8, addend: 0x0, symName: __ZNSt3__14swapB8ue170006I4edgeEENS_9enable_ifIXaasr21is_move_constructibleIT_EE5valuesr18is_move_assignableIS3_EE5valueEvE4typeERS3_S6_, symObjAddr: 0x2970, symBinAddr: 0x100005630, symSize: 0x54 }
  - { offsetInCU: 0x824F, offset: 0x824F, size: 0x8, addend: 0x0, symName: __ZNSt3__14swapB8ue170006I4edgeEENS_9enable_ifIXaasr21is_move_constructibleIT_EE5valuesr18is_move_assignableIS3_EE5valueEvE4typeERS3_S6_, symObjAddr: 0x2970, symBinAddr: 0x100005630, symSize: 0x54 }
  - { offsetInCU: 0x8257, offset: 0x8257, size: 0x8, addend: 0x0, symName: __ZNSt3__17__sort4B8ue170006INS_17_ClassicAlgPolicyERPFb4edgeS2_EPS2_EEvT1_S7_S7_S7_T0_, symObjAddr: 0x29C4, symBinAddr: 0x100005684, symSize: 0x1F0 }
  - { offsetInCU: 0x82BA, offset: 0x82BA, size: 0x8, addend: 0x0, symName: __ZNSt3__17__sort4B8ue170006INS_17_ClassicAlgPolicyERPFb4edgeS2_EPS2_EEvT1_S7_S7_S7_T0_, symObjAddr: 0x29C4, symBinAddr: 0x100005684, symSize: 0x1F0 }
  - { offsetInCU: 0x82C2, offset: 0x82C2, size: 0x8, addend: 0x0, symName: __ZNSt3__17__sort5B8ue170006INS_17_ClassicAlgPolicyERPFb4edgeS2_EPS2_EEvT1_S7_S7_S7_S7_T0_, symObjAddr: 0x2BB4, symBinAddr: 0x100005874, symSize: 0x274 }
  - { offsetInCU: 0x835F, offset: 0x835F, size: 0x8, addend: 0x0, symName: __ZNSt3__17__sort5B8ue170006INS_17_ClassicAlgPolicyERPFb4edgeS2_EPS2_EEvT1_S7_S7_S7_S7_T0_, symObjAddr: 0x2BB4, symBinAddr: 0x100005874, symSize: 0x274 }
  - { offsetInCU: 0x8367, offset: 0x8367, size: 0x8, addend: 0x0, symName: __ZNSt3__18_IterOpsINS_17_ClassicAlgPolicyEE11__iter_moveB8ue170006IRP4edgeEENS_9enable_ifIXsr12is_referenceIDTdeclsr3stdE7declvalIRT_EEEEE5valueEDTclsr3stdE4movedeclsr3stdE7declvalIS9_EEEEE4typeEOS8_, symObjAddr: 0x2E28, symBinAddr: 0x100005AE8, symSize: 0x28 }
  - { offsetInCU: 0x8447, offset: 0x8447, size: 0x8, addend: 0x0, symName: __ZNSt3__119__partial_sort_implB8ue170006INS_17_ClassicAlgPolicyERPFb4edgeS2_EPS2_S6_EET1_S7_S7_T2_OT0_, symObjAddr: 0x2E6C, symBinAddr: 0x100005B2C, symSize: 0x1A0 }
  - { offsetInCU: 0x844F, offset: 0x844F, size: 0x8, addend: 0x0, symName: __ZNSt3__111__make_heapB8ue170006INS_17_ClassicAlgPolicyERPFb4edgeS2_EPS2_EEvT1_S7_OT0_, symObjAddr: 0x300C, symBinAddr: 0x100005CCC, symSize: 0xC0 }
  - { offsetInCU: 0x8510, offset: 0x8510, size: 0x8, addend: 0x0, symName: __ZNSt3__111__make_heapB8ue170006INS_17_ClassicAlgPolicyERPFb4edgeS2_EPS2_EEvT1_S7_OT0_, symObjAddr: 0x300C, symBinAddr: 0x100005CCC, symSize: 0xC0 }
  - { offsetInCU: 0x8518, offset: 0x8518, size: 0x8, addend: 0x0, symName: __ZNSt3__111__sift_downB8ue170006INS_17_ClassicAlgPolicyERPFb4edgeS2_EPS2_EEvT1_OT0_NS_15iterator_traitsIS7_E15difference_typeES7_, symObjAddr: 0x30CC, symBinAddr: 0x100005D8C, symSize: 0x3B4 }
  - { offsetInCU: 0x85E3, offset: 0x85E3, size: 0x8, addend: 0x0, symName: __ZNSt3__111__sort_heapB8ue170006INS_17_ClassicAlgPolicyERPFb4edgeS2_EPS2_EEvT1_S7_OT0_, symObjAddr: 0x3480, symBinAddr: 0x100006140, symSize: 0xA8 }
  - { offsetInCU: 0x85EB, offset: 0x85EB, size: 0x8, addend: 0x0, symName: __ZNSt3__110__pop_heapB8ue170006INS_17_ClassicAlgPolicyEPFb4edgeS2_EPS2_EEvT1_S6_RT0_NS_15iterator_traitsIS6_E15difference_typeE, symObjAddr: 0x3528, symBinAddr: 0x1000061E8, symSize: 0x114 }
  - { offsetInCU: 0x86B6, offset: 0x86B6, size: 0x8, addend: 0x0, symName: __ZNSt3__110__pop_heapB8ue170006INS_17_ClassicAlgPolicyEPFb4edgeS2_EPS2_EEvT1_S6_RT0_NS_15iterator_traitsIS6_E15difference_typeE, symObjAddr: 0x3528, symBinAddr: 0x1000061E8, symSize: 0x114 }
  - { offsetInCU: 0x86BE, offset: 0x86BE, size: 0x8, addend: 0x0, symName: __ZNSt3__117__floyd_sift_downB8ue170006INS_17_ClassicAlgPolicyERPFb4edgeS2_EPS2_EET1_S7_OT0_NS_15iterator_traitsIS7_E15difference_typeE, symObjAddr: 0x363C, symBinAddr: 0x1000062FC, symSize: 0x19C }
  - { offsetInCU: 0x879B, offset: 0x879B, size: 0x8, addend: 0x0, symName: __ZNSt3__19__sift_upB8ue170006INS_17_ClassicAlgPolicyERPFb4edgeS2_EPS2_EEvT1_S7_OT0_NS_15iterator_traitsIS7_E15difference_typeE, symObjAddr: 0x37D8, symBinAddr: 0x100006498, symSize: 0x21C }
  - { offsetInCU: 0x87A3, offset: 0x87A3, size: 0x8, addend: 0x0, symName: __ZNSt3__122__populate_left_bitsetB8ue170006IRPFb4edgeS1_EPS1_S1_EEvT0_T_RT1_Ry, symObjAddr: 0x39F4, symBinAddr: 0x1000066B4, symSize: 0x130 }
  - { offsetInCU: 0x8885, offset: 0x8885, size: 0x8, addend: 0x0, symName: __ZNSt3__122__populate_left_bitsetB8ue170006IRPFb4edgeS1_EPS1_S1_EEvT0_T_RT1_Ry, symObjAddr: 0x39F4, symBinAddr: 0x1000066B4, symSize: 0x130 }
  - { offsetInCU: 0x888D, offset: 0x888D, size: 0x8, addend: 0x0, symName: __ZNSt3__123__populate_right_bitsetB8ue170006IRPFb4edgeS1_EPS1_S1_EEvT0_T_RT1_Ry, symObjAddr: 0x3B24, symBinAddr: 0x1000067E4, symSize: 0x128 }
  - { offsetInCU: 0x8976, offset: 0x8976, size: 0x8, addend: 0x0, symName: __ZNSt3__123__populate_right_bitsetB8ue170006IRPFb4edgeS1_EPS1_S1_EEvT0_T_RT1_Ry, symObjAddr: 0x3B24, symBinAddr: 0x1000067E4, symSize: 0x128 }
  - { offsetInCU: 0x897E, offset: 0x897E, size: 0x8, addend: 0x0, symName: __ZNSt3__117__swap_bitmap_posB8ue170006INS_17_ClassicAlgPolicyEP4edgeEEvT0_S4_RyS5_, symObjAddr: 0x3C4C, symBinAddr: 0x10000690C, symSize: 0x104 }
  - { offsetInCU: 0x8A67, offset: 0x8A67, size: 0x8, addend: 0x0, symName: __ZNSt3__117__swap_bitmap_posB8ue170006INS_17_ClassicAlgPolicyEP4edgeEEvT0_S4_RyS5_, symObjAddr: 0x3C4C, symBinAddr: 0x10000690C, symSize: 0x104 }
  - { offsetInCU: 0x8A6F, offset: 0x8A6F, size: 0x8, addend: 0x0, symName: __ZNSt3__133__bitset_partition_partial_blocksB8ue170006INS_17_ClassicAlgPolicyERPFb4edgeS2_EPS2_S2_EEvRT1_S8_T0_RT2_RySC_, symObjAddr: 0x3D50, symBinAddr: 0x100006A10, symSize: 0x3D4 }
  - { offsetInCU: 0x8B35, offset: 0x8B35, size: 0x8, addend: 0x0, symName: __ZNSt3__133__bitset_partition_partial_blocksB8ue170006INS_17_ClassicAlgPolicyERPFb4edgeS2_EPS2_S2_EEvRT1_S8_T0_RT2_RySC_, symObjAddr: 0x3D50, symBinAddr: 0x100006A10, symSize: 0x3D4 }
  - { offsetInCU: 0x8B3D, offset: 0x8B3D, size: 0x8, addend: 0x0, symName: __ZNSt3__124__swap_bitmap_pos_withinB8ue170006INS_17_ClassicAlgPolicyEP4edgeEEvRT0_S5_RyS6_, symObjAddr: 0x4124, symBinAddr: 0x100006DE4, symSize: 0x1E8 }
  - { offsetInCU: 0x8D2E, offset: 0x8D2E, size: 0x8, addend: 0x0, symName: __ZNSt3__19make_pairB8ue170006IRP4edgeRbEENS_4pairINS_18__unwrap_ref_decayIT_E4typeENS6_IT0_E4typeEEEOS7_OSA_, symObjAddr: 0x430C, symBinAddr: 0x100006FCC, symSize: 0x38 }
  - { offsetInCU: 0x8D36, offset: 0x8D36, size: 0x8, addend: 0x0, symName: __ZNSt3__112__libcpp_ctzB8ue170006Ey, symObjAddr: 0x4344, symBinAddr: 0x100007004, symSize: 0x20 }
  - { offsetInCU: 0x8D96, offset: 0x8D96, size: 0x8, addend: 0x0, symName: __ZNSt3__112__libcpp_ctzB8ue170006Ey, symObjAddr: 0x4344, symBinAddr: 0x100007004, symSize: 0x20 }
  - { offsetInCU: 0x8D9E, offset: 0x8D9E, size: 0x8, addend: 0x0, symName: __ZNSt3__113__libcpp_blsrB8ue170006Ey, symObjAddr: 0x4364, symBinAddr: 0x100007024, symSize: 0x2C }
  - { offsetInCU: 0x8DD0, offset: 0x8DD0, size: 0x8, addend: 0x0, symName: __ZNSt3__113__libcpp_blsrB8ue170006Ey, symObjAddr: 0x4364, symBinAddr: 0x100007024, symSize: 0x2C }
  - { offsetInCU: 0x8DD8, offset: 0x8DD8, size: 0x8, addend: 0x0, symName: __ZNSt3__18_IterOpsINS_17_ClassicAlgPolicyEE9iter_swapB8ue170006IP4edgeS5_EEvOT_OT0_, symObjAddr: 0x4390, symBinAddr: 0x100007050, symSize: 0x34 }
  - { offsetInCU: 0x8E0A, offset: 0x8E0A, size: 0x8, addend: 0x0, symName: __ZNSt3__112__libcpp_clzB8ue170006Ey, symObjAddr: 0x43C4, symBinAddr: 0x100007084, symSize: 0x1C }
  - { offsetInCU: 0x8E12, offset: 0x8E12, size: 0x8, addend: 0x0, symName: __ZNSt3__14pairIP4edgebEC1B8ue170006IRS2_RbLPv0EEEOT_OT0_, symObjAddr: 0x43E0, symBinAddr: 0x1000070A0, symSize: 0x3C }
  - { offsetInCU: 0x8FFE, offset: 0x8FFE, size: 0x8, addend: 0x0, symName: __ZNSt3__112__to_addressB8ue170006I4edgeEEPT_S3_, symObjAddr: 0x4478, symBinAddr: 0x100007138, symSize: 0x14 }
  - { offsetInCU: 0x9006, offset: 0x9006, size: 0x8, addend: 0x0, symName: __ZNSt3__124__put_character_sequenceB8ue170006IcNS_11char_traitsIcEEEERNS_13basic_ostreamIT_T0_EES7_PKS4_m, symObjAddr: 0x448C, symBinAddr: 0x10000714C, symSize: 0x1EC }
  - { offsetInCU: 0x9045, offset: 0x9045, size: 0x8, addend: 0x0, symName: __ZNSt3__116__pad_and_outputB8ue170006IcNS_11char_traitsIcEEEENS_19ostreambuf_iteratorIT_T0_EES6_PKS4_S8_S8_RNS_8ios_baseES4_, symObjAddr: 0x46C8, symBinAddr: 0x100007388, symSize: 0x240 }
  - { offsetInCU: 0x904D, offset: 0x904D, size: 0x8, addend: 0x0, symName: __ZNSt3__119ostreambuf_iteratorIcNS_11char_traitsIcEEEC1B8ue170006ERNS_13basic_ostreamIcS2_EE, symObjAddr: 0x4908, symBinAddr: 0x1000075C8, symSize: 0x34 }
  - { offsetInCU: 0x914D, offset: 0x914D, size: 0x8, addend: 0x0, symName: __ZNSt3__112__to_addressB8ue170006IcEEPT_S2_, symObjAddr: 0x4C3C, symBinAddr: 0x1000078FC, symSize: 0x14 }
  - { offsetInCU: 0x9155, offset: 0x9155, size: 0x8, addend: 0x0, symName: __ZNSt3__112basic_stringIcNS_11char_traitsIcEENS_9allocatorIcEEE13__get_pointerB8ue170006Ev, symObjAddr: 0x4C50, symBinAddr: 0x100007910, symSize: 0x54 }
  - { offsetInCU: 0x91D9, offset: 0x91D9, size: 0x8, addend: 0x0, symName: __ZNSt3__19use_facetB8ue170006INS_5ctypeIcEEEERKT_RKNS_6localeE, symObjAddr: 0x4EF4, symBinAddr: 0x100007BB4, symSize: 0x2C }
  - { offsetInCU: 0x91E1, offset: 0x91E1, size: 0x8, addend: 0x0, symName: __ZNKSt3__15ctypeIcE5widenB8ue170006Ec, symObjAddr: 0x4F20, symBinAddr: 0x100007BE0, symSize: 0x38 }
  - { offsetInCU: 0x9918, offset: 0x9918, size: 0x8, addend: 0x0, symName: __ZNSt3__118__constexpr_strlenB8ue170006EPKc, symObjAddr: 0x4F8C, symBinAddr: 0x100007C4C, symSize: 0x24 }
  - { offsetInCU: 0xD6CB, offset: 0xD6CB, size: 0x8, addend: 0x0, symName: __Z7compare4edgeS_, symObjAddr: 0x0, symBinAddr: 0x100002CC0, symSize: 0x98 }
  - { offsetInCU: 0xD6D3, offset: 0xD6D3, size: 0x8, addend: 0x0, symName: __Z10findParentiPi, symObjAddr: 0x98, symBinAddr: 0x100002D58, symSize: 0x6C }
  - { offsetInCU: 0xD716, offset: 0xD716, size: 0x8, addend: 0x0, symName: __Z10findParentiPi, symObjAddr: 0x98, symBinAddr: 0x100002D58, symSize: 0x6C }
  - { offsetInCU: 0xD71E, offset: 0xD71E, size: 0x8, addend: 0x0, symName: __Z7KruskalP4edgeii, symObjAddr: 0x104, symBinAddr: 0x100002DC4, symSize: 0x390 }
  - { offsetInCU: 0xD761, offset: 0xD761, size: 0x8, addend: 0x0, symName: __Z7KruskalP4edgeii, symObjAddr: 0x104, symBinAddr: 0x100002DC4, symSize: 0x390 }
  - { offsetInCU: 0xD769, offset: 0xD769, size: 0x8, addend: 0x0, symName: __ZNSt3__14sortB8ue170006IP4edgePFbS1_S1_EEEvT_S5_T0_, symObjAddr: 0x494, symBinAddr: 0x100003154, symSize: 0x38 }
  - { offsetInCU: 0xD88E, offset: 0xD88E, size: 0x8, addend: 0x0, symName: __ZNSt3__113basic_ostreamIcNS_11char_traitsIcEEElsB8ue170006EPFRS3_S4_E, symObjAddr: 0x514, symBinAddr: 0x1000031D4, symSize: 0x2C }
  - { offsetInCU: 0xD896, offset: 0xD896, size: 0x8, addend: 0x0, symName: __ZNSt3__14endlB8ue170006IcNS_11char_traitsIcEEEERNS_13basic_ostreamIT_T0_EES7_, symObjAddr: 0x540, symBinAddr: 0x100003200, symSize: 0x58 }
  - { offsetInCU: 0xD8D1, offset: 0xD8D1, size: 0x8, addend: 0x0, symName: _main, symObjAddr: 0x598, symBinAddr: 0x100003258, symSize: 0x160 }
  - { offsetInCU: 0xD8D9, offset: 0xD8D9, size: 0x8, addend: 0x0, symName: __ZNSt3__111__sort_implB8ue170006INS_17_ClassicAlgPolicyEP4edgePFbS2_S2_EEEvT0_S6_RT1_, symObjAddr: 0x6F8, symBinAddr: 0x1000033B8, symSize: 0x78 }
  - { offsetInCU: 0xD98E, offset: 0xD98E, size: 0x8, addend: 0x0, symName: __ZNSt3__18_IterOpsINS_17_ClassicAlgPolicyEE9iter_swapB8ue170006IRP4edgeS6_EEvOT_OT0_, symObjAddr: 0xE70, symBinAddr: 0x100003B30, symSize: 0x34 }
  - { offsetInCU: 0xD996, offset: 0xD996, size: 0x8, addend: 0x0, symName: __ZNSt3__124__sort3_maybe_branchlessB8ue170006INS_17_ClassicAlgPolicyERPFb4edgeS2_EPS2_EENS_9enable_ifIXntsr21__use_branchless_sortIT0_T1_EE5valueEvE4typeES9_S9_S9_S8_, symObjAddr: 0xEA4, symBinAddr: 0x100003B64, symSize: 0x3C }
  - { offsetInCU: 0xD9F1, offset: 0xD9F1, size: 0x8, addend: 0x0, symName: __ZNSt3__18_IterOpsINS_17_ClassicAlgPolicyEE9iter_swapB8ue170006IRP4edgeS5_EEvOT_OT0_, symObjAddr: 0x1780, symBinAddr: 0x100004440, symSize: 0x34 }
  - { offsetInCU: 0xD9F9, offset: 0xD9F9, size: 0x8, addend: 0x0, symName: __ZNSt3__131__partition_with_equals_on_leftB8ue170006INS_17_ClassicAlgPolicyEP4edgeRPFbS2_S2_EEET0_S7_S7_T1_, symObjAddr: 0x17B4, symBinAddr: 0x100004474, symSize: 0x444 }
  - { offsetInCU: 0xDA54, offset: 0xDA54, size: 0x8, addend: 0x0, symName: __ZNSt3__18_IterOpsINS_17_ClassicAlgPolicyEE11__iter_moveB8ue170006IRP4edgeEENS_9enable_ifIXsr12is_referenceIDTdeclsr3stdE7declvalIRT_EEEEE5valueEDTclsr3stdE4movedeclsr3stdE7declvalIS9_EEEEE4typeEOS8_, symObjAddr: 0x2E28, symBinAddr: 0x100005AE8, symSize: 0x28 }
  - { offsetInCU: 0xDA5C, offset: 0xDA5C, size: 0x8, addend: 0x0, symName: __ZNSt3__18_IterOpsINS_17_ClassicAlgPolicyEE25__validate_iter_referenceB8ue170006IRP4edgeEEvv, symObjAddr: 0x2E50, symBinAddr: 0x100005B10, symSize: 0x4 }
  - { offsetInCU: 0xDA8F, offset: 0xDA8F, size: 0x8, addend: 0x0, symName: __ZNSt3__18_IterOpsINS_17_ClassicAlgPolicyEE25__validate_iter_referenceB8ue170006IRP4edgeEEvv, symObjAddr: 0x2E50, symBinAddr: 0x100005B10, symSize: 0x4 }
  - { offsetInCU: 0xDA97, offset: 0xDA97, size: 0x8, addend: 0x0, symName: __ZNSt3__18_IterOpsINS_17_ClassicAlgPolicyEE4nextB8ue170006IP4edgeEET_S6_S6_, symObjAddr: 0x2E54, symBinAddr: 0x100005B14, symSize: 0x18 }
  - { offsetInCU: 0xDAB9, offset: 0xDAB9, size: 0x8, addend: 0x0, symName: __ZNSt3__18_IterOpsINS_17_ClassicAlgPolicyEE4nextB8ue170006IP4edgeEET_S6_S6_, symObjAddr: 0x2E54, symBinAddr: 0x100005B14, symSize: 0x18 }
  - { offsetInCU: 0xDAC1, offset: 0xDAC1, size: 0x8, addend: 0x0, symName: __ZNSt3__119__partial_sort_implB8ue170006INS_17_ClassicAlgPolicyERPFb4edgeS2_EPS2_S6_EET1_S7_S7_T2_OT0_, symObjAddr: 0x2E6C, symBinAddr: 0x100005B2C, symSize: 0x1A0 }
  - { offsetInCU: 0xDB04, offset: 0xDB04, size: 0x8, addend: 0x0, symName: __ZNSt3__18_IterOpsINS_17_ClassicAlgPolicyEE9iter_swapB8ue170006IP4edgeS5_EEvOT_OT0_, symObjAddr: 0x4390, symBinAddr: 0x100007050, symSize: 0x34 }
  - { offsetInCU: 0xDB0C, offset: 0xDB0C, size: 0x8, addend: 0x0, symName: __ZNSt3__112__libcpp_clzB8ue170006Ey, symObjAddr: 0x43C4, symBinAddr: 0x100007084, symSize: 0x1C }
  - { offsetInCU: 0xDB94, offset: 0xDB94, size: 0x8, addend: 0x0, symName: __ZNSt3__14pairIP4edgebEC1B8ue170006IRS2_RbLPv0EEEOT_OT0_, symObjAddr: 0x43E0, symBinAddr: 0x1000070A0, symSize: 0x3C }
  - { offsetInCU: 0xDB9C, offset: 0xDB9C, size: 0x8, addend: 0x0, symName: __ZNSt3__14pairIP4edgebEC2B8ue170006IRS2_RbLPv0EEEOT_OT0_, symObjAddr: 0x441C, symBinAddr: 0x1000070DC, symSize: 0x38 }
  - { offsetInCU: 0xDC12, offset: 0xDC12, size: 0x8, addend: 0x0, symName: __ZNSt3__14pairIP4edgebEC2B8ue170006IRS2_RbLPv0EEEOT_OT0_, symObjAddr: 0x441C, symBinAddr: 0x1000070DC, symSize: 0x38 }
  - { offsetInCU: 0xDC1A, offset: 0xDC1A, size: 0x8, addend: 0x0, symName: __ZNSt3__118__unwrap_iter_implIP4edgeLb1EE8__unwrapB8ue170006ES2_, symObjAddr: 0x4454, symBinAddr: 0x100007114, symSize: 0x24 }
  - { offsetInCU: 0xDC91, offset: 0xDC91, size: 0x8, addend: 0x0, symName: __ZNSt3__118__unwrap_iter_implIP4edgeLb1EE8__unwrapB8ue170006ES2_, symObjAddr: 0x4454, symBinAddr: 0x100007114, symSize: 0x24 }
  - { offsetInCU: 0xDC99, offset: 0xDC99, size: 0x8, addend: 0x0, symName: __ZNSt3__112__to_addressB8ue170006I4edgeEEPT_S3_, symObjAddr: 0x4478, symBinAddr: 0x100007138, symSize: 0x14 }
  - { offsetInCU: 0xDCBF, offset: 0xDCBF, size: 0x8, addend: 0x0, symName: __ZNSt3__111char_traitsIcE6lengthB8ue170006EPKc, symObjAddr: 0x4678, symBinAddr: 0x100007338, symSize: 0x34 }
  - { offsetInCU: 0xDCC7, offset: 0xDCC7, size: 0x8, addend: 0x0, symName: __ZNKSt3__113basic_ostreamIcNS_11char_traitsIcEEE6sentrycvbB8ue170006Ev, symObjAddr: 0x46AC, symBinAddr: 0x10000736C, symSize: 0x1C }
  - { offsetInCU: 0xDD23, offset: 0xDD23, size: 0x8, addend: 0x0, symName: __ZNKSt3__113basic_ostreamIcNS_11char_traitsIcEEE6sentrycvbB8ue170006Ev, symObjAddr: 0x46AC, symBinAddr: 0x10000736C, symSize: 0x1C }
  - { offsetInCU: 0xDD2B, offset: 0xDD2B, size: 0x8, addend: 0x0, symName: __ZNSt3__116__pad_and_outputB8ue170006IcNS_11char_traitsIcEEEENS_19ostreambuf_iteratorIT_T0_EES6_PKS4_S8_S8_RNS_8ios_baseES4_, symObjAddr: 0x46C8, symBinAddr: 0x100007388, symSize: 0x240 }
  - { offsetInCU: 0xDD56, offset: 0xDD56, size: 0x8, addend: 0x0, symName: __ZNSt3__119ostreambuf_iteratorIcNS_11char_traitsIcEEEC1B8ue170006ERNS_13basic_ostreamIcS2_EE, symObjAddr: 0x4908, symBinAddr: 0x1000075C8, symSize: 0x34 }
  - { offsetInCU: 0xDD5E, offset: 0xDD5E, size: 0x8, addend: 0x0, symName: __ZNKSt3__18ios_base5flagsB8ue170006Ev, symObjAddr: 0x493C, symBinAddr: 0x1000075FC, symSize: 0x18 }
  - { offsetInCU: 0xDD9E, offset: 0xDD9E, size: 0x8, addend: 0x0, symName: __ZNKSt3__18ios_base5flagsB8ue170006Ev, symObjAddr: 0x493C, symBinAddr: 0x1000075FC, symSize: 0x18 }
  - { offsetInCU: 0xDDA6, offset: 0xDDA6, size: 0x8, addend: 0x0, symName: __ZNKSt3__19basic_iosIcNS_11char_traitsIcEEE4fillB8ue170006Ev, symObjAddr: 0x4954, symBinAddr: 0x100007614, symSize: 0x64 }
  - { offsetInCU: 0xDDD3, offset: 0xDDD3, size: 0x8, addend: 0x0, symName: __ZNKSt3__19basic_iosIcNS_11char_traitsIcEEE4fillB8ue170006Ev, symObjAddr: 0x4954, symBinAddr: 0x100007614, symSize: 0x64 }
  - { offsetInCU: 0xDDDB, offset: 0xDDDB, size: 0x8, addend: 0x0, symName: __ZNKSt3__119ostreambuf_iteratorIcNS_11char_traitsIcEEE6failedB8ue170006Ev, symObjAddr: 0x49B8, symBinAddr: 0x100007678, symSize: 0x24 }
  - { offsetInCU: 0xDE07, offset: 0xDE07, size: 0x8, addend: 0x0, symName: __ZNKSt3__119ostreambuf_iteratorIcNS_11char_traitsIcEEE6failedB8ue170006Ev, symObjAddr: 0x49B8, symBinAddr: 0x100007678, symSize: 0x24 }
  - { offsetInCU: 0xDE0F, offset: 0xDE0F, size: 0x8, addend: 0x0, symName: __ZNSt3__19basic_iosIcNS_11char_traitsIcEEE8setstateB8ue170006Ej, symObjAddr: 0x49DC, symBinAddr: 0x10000769C, symSize: 0x2C }
  - { offsetInCU: 0xDE39, offset: 0xDE39, size: 0x8, addend: 0x0, symName: __ZNSt3__19basic_iosIcNS_11char_traitsIcEEE8setstateB8ue170006Ej, symObjAddr: 0x49DC, symBinAddr: 0x10000769C, symSize: 0x2C }
  - { offsetInCU: 0xDE41, offset: 0xDE41, size: 0x8, addend: 0x0, symName: ___clang_call_terminate, symObjAddr: 0x4A08, symBinAddr: 0x1000076C8, symSize: 0xC }
  - { offsetInCU: 0xDE7E, offset: 0xDE7E, size: 0x8, addend: 0x0, symName: __ZNKSt3__18ios_base5widthB8ue170006Ev, symObjAddr: 0x4A14, symBinAddr: 0x1000076D4, symSize: 0x18 }
  - { offsetInCU: 0xDE86, offset: 0xDE86, size: 0x8, addend: 0x0, symName: __ZNSt3__115basic_streambufIcNS_11char_traitsIcEEE5sputnB8ue170006EPKcl, symObjAddr: 0x4A2C, symBinAddr: 0x1000076EC, symSize: 0x3C }
  - { offsetInCU: 0xDEB2, offset: 0xDEB2, size: 0x8, addend: 0x0, symName: __ZNSt3__115basic_streambufIcNS_11char_traitsIcEEE5sputnB8ue170006EPKcl, symObjAddr: 0x4A2C, symBinAddr: 0x1000076EC, symSize: 0x3C }
  - { offsetInCU: 0xDEBA, offset: 0xDEBA, size: 0x8, addend: 0x0, symName: __ZNSt3__112basic_stringIcNS_11char_traitsIcEENS_9allocatorIcEEEC1B8ue170006Emc, symObjAddr: 0x4A68, symBinAddr: 0x100007728, symSize: 0x3C }
  - { offsetInCU: 0xDF08, offset: 0xDF08, size: 0x8, addend: 0x0, symName: __ZNSt3__112basic_stringIcNS_11char_traitsIcEENS_9allocatorIcEEEC1B8ue170006Emc, symObjAddr: 0x4A68, symBinAddr: 0x100007728, symSize: 0x3C }
  - { offsetInCU: 0xDF10, offset: 0xDF10, size: 0x8, addend: 0x0, symName: __ZNSt3__112basic_stringIcNS_11char_traitsIcEENS_9allocatorIcEEE4dataB8ue170006Ev, symObjAddr: 0x4AA4, symBinAddr: 0x100007764, symSize: 0x28 }
  - { offsetInCU: 0xDF63, offset: 0xDF63, size: 0x8, addend: 0x0, symName: __ZNSt3__112basic_stringIcNS_11char_traitsIcEENS_9allocatorIcEEE4dataB8ue170006Ev, symObjAddr: 0x4AA4, symBinAddr: 0x100007764, symSize: 0x28 }
  - { offsetInCU: 0xDF6B, offset: 0xDF6B, size: 0x8, addend: 0x0, symName: __ZNSt3__18ios_base5widthB8ue170006El, symObjAddr: 0x4ACC, symBinAddr: 0x10000778C, symSize: 0x2C }
  - { offsetInCU: 0xDF95, offset: 0xDF95, size: 0x8, addend: 0x0, symName: __ZNSt3__18ios_base5widthB8ue170006El, symObjAddr: 0x4ACC, symBinAddr: 0x10000778C, symSize: 0x2C }
  - { offsetInCU: 0xDF9D, offset: 0xDF9D, size: 0x8, addend: 0x0, symName: __ZNSt3__112basic_stringIcNS_11char_traitsIcEENS_9allocatorIcEEEC2B8ue170006Emc, symObjAddr: 0x4AF8, symBinAddr: 0x1000077B8, symSize: 0x4C }
  - { offsetInCU: 0xDFF0, offset: 0xDFF0, size: 0x8, addend: 0x0, symName: __ZNSt3__112basic_stringIcNS_11char_traitsIcEENS_9allocatorIcEEEC2B8ue170006Emc, symObjAddr: 0x4AF8, symBinAddr: 0x1000077B8, symSize: 0x4C }
  - { offsetInCU: 0xDFF8, offset: 0xDFF8, size: 0x8, addend: 0x0, symName: __ZNSt3__117__compressed_pairINS_12basic_stringIcNS_11char_traitsIcEENS_9allocatorIcEEE5__repES5_EC1B8ue170006INS_18__default_init_tagESA_EEOT_OT0_, symObjAddr: 0x4B44, symBinAddr: 0x100007804, symSize: 0x3C }
  - { offsetInCU: 0xE055, offset: 0xE055, size: 0x8, addend: 0x0, symName: __ZNSt3__117__compressed_pairINS_12basic_stringIcNS_11char_traitsIcEENS_9allocatorIcEEE5__repES5_EC1B8ue170006INS_18__default_init_tagESA_EEOT_OT0_, symObjAddr: 0x4B44, symBinAddr: 0x100007804, symSize: 0x3C }
  - { offsetInCU: 0xE05D, offset: 0xE05D, size: 0x8, addend: 0x0, symName: __ZNSt3__117__compressed_pairINS_12basic_stringIcNS_11char_traitsIcEENS_9allocatorIcEEE5__repES5_EC2B8ue170006INS_18__default_init_tagESA_EEOT_OT0_, symObjAddr: 0x4B80, symBinAddr: 0x100007840, symSize: 0x3C }
  - { offsetInCU: 0xE0C9, offset: 0xE0C9, size: 0x8, addend: 0x0, symName: __ZNSt3__117__compressed_pairINS_12basic_stringIcNS_11char_traitsIcEENS_9allocatorIcEEE5__repES5_EC2B8ue170006INS_18__default_init_tagESA_EEOT_OT0_, symObjAddr: 0x4B80, symBinAddr: 0x100007840, symSize: 0x3C }
  - { offsetInCU: 0xE0D1, offset: 0xE0D1, size: 0x8, addend: 0x0, symName: __ZNSt3__122__compressed_pair_elemINS_12basic_stringIcNS_11char_traitsIcEENS_9allocatorIcEEE5__repELi0ELb0EEC2B8ue170006ENS_18__default_init_tagE, symObjAddr: 0x4BBC, symBinAddr: 0x10000787C, symSize: 0x14 }
  - { offsetInCU: 0xE13D, offset: 0xE13D, size: 0x8, addend: 0x0, symName: __ZNSt3__122__compressed_pair_elemINS_12basic_stringIcNS_11char_traitsIcEENS_9allocatorIcEEE5__repELi0ELb0EEC2B8ue170006ENS_18__default_init_tagE, symObjAddr: 0x4BBC, symBinAddr: 0x10000787C, symSize: 0x14 }
  - { offsetInCU: 0xE145, offset: 0xE145, size: 0x8, addend: 0x0, symName: __ZNSt3__122__compressed_pair_elemINS_9allocatorIcEELi1ELb1EEC2B8ue170006ENS_18__default_init_tagE, symObjAddr: 0x4BD0, symBinAddr: 0x100007890, symSize: 0x2C }
  - { offsetInCU: 0xE183, offset: 0xE183, size: 0x8, addend: 0x0, symName: __ZNSt3__122__compressed_pair_elemINS_9allocatorIcEELi1ELb1EEC2B8ue170006ENS_18__default_init_tagE, symObjAddr: 0x4BD0, symBinAddr: 0x100007890, symSize: 0x2C }
  - { offsetInCU: 0xE18B, offset: 0xE18B, size: 0x8, addend: 0x0, symName: __ZNSt3__19allocatorIcEC2B8ue170006Ev, symObjAddr: 0x4BFC, symBinAddr: 0x1000078BC, symSize: 0x2C }
  - { offsetInCU: 0xE1C8, offset: 0xE1C8, size: 0x8, addend: 0x0, symName: __ZNSt3__19allocatorIcEC2B8ue170006Ev, symObjAddr: 0x4BFC, symBinAddr: 0x1000078BC, symSize: 0x2C }
  - { offsetInCU: 0xE1D0, offset: 0xE1D0, size: 0x8, addend: 0x0, symName: __ZNSt3__116__non_trivial_ifILb1ENS_9allocatorIcEEEC2B8ue170006Ev, symObjAddr: 0x4C28, symBinAddr: 0x1000078E8, symSize: 0x14 }
  - { offsetInCU: 0xE1FE, offset: 0xE1FE, size: 0x8, addend: 0x0, symName: __ZNSt3__116__non_trivial_ifILb1ENS_9allocatorIcEEEC2B8ue170006Ev, symObjAddr: 0x4C28, symBinAddr: 0x1000078E8, symSize: 0x14 }
  - { offsetInCU: 0xE206, offset: 0xE206, size: 0x8, addend: 0x0, symName: __ZNSt3__112__to_addressB8ue170006IcEEPT_S2_, symObjAddr: 0x4C3C, symBinAddr: 0x1000078FC, symSize: 0x14 }
  - { offsetInCU: 0xE234, offset: 0xE234, size: 0x8, addend: 0x0, symName: __ZNSt3__112basic_stringIcNS_11char_traitsIcEENS_9allocatorIcEEE13__get_pointerB8ue170006Ev, symObjAddr: 0x4C50, symBinAddr: 0x100007910, symSize: 0x54 }
  - { offsetInCU: 0xE23C, offset: 0xE23C, size: 0x8, addend: 0x0, symName: __ZNKSt3__112basic_stringIcNS_11char_traitsIcEENS_9allocatorIcEEE9__is_longB8ue170006Ev, symObjAddr: 0x4CA4, symBinAddr: 0x100007964, symSize: 0x38 }
  - { offsetInCU: 0xE265, offset: 0xE265, size: 0x8, addend: 0x0, symName: __ZNKSt3__112basic_stringIcNS_11char_traitsIcEENS_9allocatorIcEEE9__is_longB8ue170006Ev, symObjAddr: 0x4CA4, symBinAddr: 0x100007964, symSize: 0x38 }
  - { offsetInCU: 0xE26D, offset: 0xE26D, size: 0x8, addend: 0x0, symName: __ZNSt3__112basic_stringIcNS_11char_traitsIcEENS_9allocatorIcEEE18__get_long_pointerB8ue170006Ev, symObjAddr: 0x4CDC, symBinAddr: 0x10000799C, symSize: 0x28 }
  - { offsetInCU: 0xE296, offset: 0xE296, size: 0x8, addend: 0x0, symName: __ZNSt3__112basic_stringIcNS_11char_traitsIcEENS_9allocatorIcEEE18__get_long_pointerB8ue170006Ev, symObjAddr: 0x4CDC, symBinAddr: 0x10000799C, symSize: 0x28 }
  - { offsetInCU: 0xE29E, offset: 0xE29E, size: 0x8, addend: 0x0, symName: __ZNSt3__112basic_stringIcNS_11char_traitsIcEENS_9allocatorIcEEE19__get_short_pointerB8ue170006Ev, symObjAddr: 0x4D04, symBinAddr: 0x1000079C4, symSize: 0x28 }
  - { offsetInCU: 0xE2C7, offset: 0xE2C7, size: 0x8, addend: 0x0, symName: __ZNSt3__112basic_stringIcNS_11char_traitsIcEENS_9allocatorIcEEE19__get_short_pointerB8ue170006Ev, symObjAddr: 0x4D04, symBinAddr: 0x1000079C4, symSize: 0x28 }
  - { offsetInCU: 0xE2CF, offset: 0xE2CF, size: 0x8, addend: 0x0, symName: __ZNKSt3__117__compressed_pairINS_12basic_stringIcNS_11char_traitsIcEENS_9allocatorIcEEE5__repES5_E5firstB8ue170006Ev, symObjAddr: 0x4D2C, symBinAddr: 0x1000079EC, symSize: 0x24 }
  - { offsetInCU: 0xE2F8, offset: 0xE2F8, size: 0x8, addend: 0x0, symName: __ZNKSt3__117__compressed_pairINS_12basic_stringIcNS_11char_traitsIcEENS_9allocatorIcEEE5__repES5_E5firstB8ue170006Ev, symObjAddr: 0x4D2C, symBinAddr: 0x1000079EC, symSize: 0x24 }
  - { offsetInCU: 0xE300, offset: 0xE300, size: 0x8, addend: 0x0, symName: __ZNKSt3__122__compressed_pair_elemINS_12basic_stringIcNS_11char_traitsIcEENS_9allocatorIcEEE5__repELi0ELb0EE5__getB8ue170006Ev, symObjAddr: 0x4D50, symBinAddr: 0x100007A10, symSize: 0x14 }
  - { offsetInCU: 0xE32A, offset: 0xE32A, size: 0x8, addend: 0x0, symName: __ZNKSt3__122__compressed_pair_elemINS_12basic_stringIcNS_11char_traitsIcEENS_9allocatorIcEEE5__repELi0ELb0EE5__getB8ue170006Ev, symObjAddr: 0x4D50, symBinAddr: 0x100007A10, symSize: 0x14 }
  - { offsetInCU: 0xE332, offset: 0xE332, size: 0x8, addend: 0x0, symName: __ZNSt3__117__compressed_pairINS_12basic_stringIcNS_11char_traitsIcEENS_9allocatorIcEEE5__repES5_E5firstB8ue170006Ev, symObjAddr: 0x4D64, symBinAddr: 0x100007A24, symSize: 0x24 }
  - { offsetInCU: 0xE35C, offset: 0xE35C, size: 0x8, addend: 0x0, symName: __ZNSt3__117__compressed_pairINS_12basic_stringIcNS_11char_traitsIcEENS_9allocatorIcEEE5__repES5_E5firstB8ue170006Ev, symObjAddr: 0x4D64, symBinAddr: 0x100007A24, symSize: 0x24 }
  - { offsetInCU: 0xE364, offset: 0xE364, size: 0x8, addend: 0x0, symName: __ZNSt3__122__compressed_pair_elemINS_12basic_stringIcNS_11char_traitsIcEENS_9allocatorIcEEE5__repELi0ELb0EE5__getB8ue170006Ev, symObjAddr: 0x4D88, symBinAddr: 0x100007A48, symSize: 0x14 }
  - { offsetInCU: 0xE38E, offset: 0xE38E, size: 0x8, addend: 0x0, symName: __ZNSt3__122__compressed_pair_elemINS_12basic_stringIcNS_11char_traitsIcEENS_9allocatorIcEEE5__repELi0ELb0EE5__getB8ue170006Ev, symObjAddr: 0x4D88, symBinAddr: 0x100007A48, symSize: 0x14 }
  - { offsetInCU: 0xE396, offset: 0xE396, size: 0x8, addend: 0x0, symName: __ZNSt3__114pointer_traitsIPcE10pointer_toB8ue170006ERc, symObjAddr: 0x4D9C, symBinAddr: 0x100007A5C, symSize: 0x14 }
  - { offsetInCU: 0xE3C1, offset: 0xE3C1, size: 0x8, addend: 0x0, symName: __ZNSt3__114pointer_traitsIPcE10pointer_toB8ue170006ERc, symObjAddr: 0x4D9C, symBinAddr: 0x100007A5C, symSize: 0x14 }
  - { offsetInCU: 0xE3C9, offset: 0xE3C9, size: 0x8, addend: 0x0, symName: __ZNSt3__119ostreambuf_iteratorIcNS_11char_traitsIcEEEC2B8ue170006ERNS_13basic_ostreamIcS2_EE, symObjAddr: 0x4DB0, symBinAddr: 0x100007A70, symSize: 0x54 }
  - { offsetInCU: 0xE3F0, offset: 0xE3F0, size: 0x8, addend: 0x0, symName: __ZNSt3__119ostreambuf_iteratorIcNS_11char_traitsIcEEEC2B8ue170006ERNS_13basic_ostreamIcS2_EE, symObjAddr: 0x4DB0, symBinAddr: 0x100007A70, symSize: 0x54 }
  - { offsetInCU: 0xE3F8, offset: 0xE3F8, size: 0x8, addend: 0x0, symName: __ZNKSt3__19basic_iosIcNS_11char_traitsIcEEE5rdbufB8ue170006Ev, symObjAddr: 0x4E04, symBinAddr: 0x100007AC4, symSize: 0x24 }
  - { offsetInCU: 0xE438, offset: 0xE438, size: 0x8, addend: 0x0, symName: __ZNKSt3__19basic_iosIcNS_11char_traitsIcEEE5rdbufB8ue170006Ev, symObjAddr: 0x4E04, symBinAddr: 0x100007AC4, symSize: 0x24 }
  - { offsetInCU: 0xE440, offset: 0xE440, size: 0x8, addend: 0x0, symName: __ZNKSt3__18ios_base5rdbufB8ue170006Ev, symObjAddr: 0x4E28, symBinAddr: 0x100007AE8, symSize: 0x18 }
  - { offsetInCU: 0xE46C, offset: 0xE46C, size: 0x8, addend: 0x0, symName: __ZNKSt3__18ios_base5rdbufB8ue170006Ev, symObjAddr: 0x4E28, symBinAddr: 0x100007AE8, symSize: 0x18 }
  - { offsetInCU: 0xE474, offset: 0xE474, size: 0x8, addend: 0x0, symName: __ZNSt3__111char_traitsIcE11eq_int_typeB8ue170006Eii, symObjAddr: 0x4E40, symBinAddr: 0x100007B00, symSize: 0x28 }
  - { offsetInCU: 0xE49F, offset: 0xE49F, size: 0x8, addend: 0x0, symName: __ZNSt3__111char_traitsIcE11eq_int_typeB8ue170006Eii, symObjAddr: 0x4E40, symBinAddr: 0x100007B00, symSize: 0x28 }
  - { offsetInCU: 0xE4A7, offset: 0xE4A7, size: 0x8, addend: 0x0, symName: __ZNSt3__111char_traitsIcE3eofB8ue170006Ev, symObjAddr: 0x4E68, symBinAddr: 0x100007B28, symSize: 0x8 }
  - { offsetInCU: 0xE4E2, offset: 0xE4E2, size: 0x8, addend: 0x0, symName: __ZNSt3__111char_traitsIcE3eofB8ue170006Ev, symObjAddr: 0x4E68, symBinAddr: 0x100007B28, symSize: 0x8 }
  - { offsetInCU: 0xE4EA, offset: 0xE4EA, size: 0x8, addend: 0x0, symName: __ZNKSt3__19basic_iosIcNS_11char_traitsIcEEE5widenB8ue170006Ec, symObjAddr: 0x4E70, symBinAddr: 0x100007B30, symSize: 0x84 }
  - { offsetInCU: 0xE4FF, offset: 0xE4FF, size: 0x8, addend: 0x0, symName: __ZNKSt3__19basic_iosIcNS_11char_traitsIcEEE5widenB8ue170006Ec, symObjAddr: 0x4E70, symBinAddr: 0x100007B30, symSize: 0x84 }
  - { offsetInCU: 0xE507, offset: 0xE507, size: 0x8, addend: 0x0, symName: __ZNSt3__19use_facetB8ue170006INS_5ctypeIcEEEERKT_RKNS_6localeE, symObjAddr: 0x4EF4, symBinAddr: 0x100007BB4, symSize: 0x2C }
  - { offsetInCU: 0xE5A8, offset: 0xE5A8, size: 0x8, addend: 0x0, symName: __ZNKSt3__15ctypeIcE5widenB8ue170006Ec, symObjAddr: 0x4F20, symBinAddr: 0x100007BE0, symSize: 0x38 }
  - { offsetInCU: 0xE5B0, offset: 0xE5B0, size: 0x8, addend: 0x0, symName: __ZNSt3__18ios_base8setstateB8ue170006Ej, symObjAddr: 0x4F58, symBinAddr: 0x100007C18, symSize: 0x34 }
  - { offsetInCU: 0xE5ED, offset: 0xE5ED, size: 0x8, addend: 0x0, symName: __ZNSt3__18ios_base8setstateB8ue170006Ej, symObjAddr: 0x4F58, symBinAddr: 0x100007C18, symSize: 0x34 }
  - { offsetInCU: 0xE5F5, offset: 0xE5F5, size: 0x8, addend: 0x0, symName: __ZNSt3__118__constexpr_strlenB8ue170006EPKc, symObjAddr: 0x4F8C, symBinAddr: 0x100007C4C, symSize: 0x24 }
...
